Certificate:
    Data:
        Version: 3 (0x2)
        Serial Number: 2 (0x2)
    Signature Algorithm: sha256WithRSAEncryption
        Issuer: C=NO, O=BSEP, OU=Tim 2, CN=Tim2 Root CA
        Validity
            Not Before: Jun 26 09:26:06 2020 GMT
            Not After : Jun 26 09:26:06 2030 GMT
        Subject: C=NO, O=BSEP, OU=Tim 2, CN=Tim2 CA
        Subject Public Key Info:
            Public Key Algorithm: rsaEncryption
                Public-Key: (4096 bit)
                Modulus:
                    00:e8:d5:57:8f:b3:28:f5:02:b7:f0:72:6c:d4:7e:
                    fc:7b:42:2c:db:30:a3:48:e7:07:56:fd:98:67:f9:
                    82:42:ef:08:43:f7:00:53:31:08:c3:83:54:23:53:
                    eb:a1:c4:97:c0:a8:53:43:f0:d9:95:c4:f7:2d:39:
                    12:b9:9c:81:79:63:13:d2:89:de:39:3f:a7:03:89:
                    28:13:3d:ee:75:8b:d1:4a:1a:f4:71:d6:3b:88:a2:
                    bf:57:21:0b:f1:63:54:42:02:ff:16:fd:4b:ee:23:
                    f9:64:1c:d3:28:7f:ea:71:51:4a:ce:ae:58:1c:93:
                    5f:d8:8d:04:0a:4a:2a:4b:28:3b:6c:d7:a8:ce:f9:
                    eb:f9:60:03:e7:e8:d5:bc:42:75:b6:cb:e5:fb:6b:
                    82:e9:a0:0a:67:16:eb:c3:0d:6b:14:95:58:f5:fd:
                    95:2e:4e:1b:40:ba:0d:da:f2:2f:7d:91:96:32:d1:
                    7e:47:f6:48:3c:3e:85:82:88:86:81:4f:a8:63:ab:
                    fe:fc:f1:78:77:c1:5b:41:6a:d9:99:f3:1f:fa:70:
                    f3:6f:9b:63:0b:0b:47:5c:d5:b6:10:f9:91:f5:00:
                    53:e7:cc:80:06:70:3f:bb:22:01:ae:6d:fd:86:80:
                    a3:f7:7e:01:95:81:60:92:db:08:f2:63:42:9c:b6:
                    d4:e9:64:20:1a:12:a0:4c:9a:11:5c:0d:0a:39:ec:
                    3d:fd:e7:20:39:e3:f2:a8:c9:47:60:f9:75:31:81:
                    64:78:6a:3d:c2:9e:48:49:12:2b:71:68:1f:59:ad:
                    98:01:c4:8a:60:dc:15:e3:0d:73:d1:c3:30:79:43:
                    84:5f:3d:cc:3b:a4:74:6e:1e:6a:7d:a2:e6:01:12:
                    d3:84:54:e7:77:7d:27:96:c7:05:7a:ed:9a:f6:68:
                    78:3b:a9:aa:f2:be:11:4d:30:4f:20:2b:74:49:0b:
                    ec:3b:1b:d7:34:d2:17:25:f0:3a:bd:ca:cb:c2:55:
                    ce:2b:6d:f6:79:13:d9:d3:ef:ca:14:bd:e6:de:22:
                    fb:ce:01:c7:d7:b7:93:85:22:fc:87:1f:78:bd:f9:
                    83:81:1d:0d:bb:5b:c0:96:3d:4c:00:7f:ac:44:bf:
                    94:06:aa:80:82:87:b2:07:e4:9b:34:cb:db:3c:1f:
                    0d:5a:a8:13:57:9d:7e:f0:23:ea:5e:14:50:5d:0e:
                    3f:12:65:a7:4a:c8:71:b0:9d:c9:e7:93:9c:c8:06:
                    24:7a:f8:ed:83:71:4c:2a:1f:86:ce:ae:bc:91:88:
                    58:88:f6:7f:b7:b4:1d:b4:49:ef:d0:40:51:9a:20:
                    22:8b:6c:16:94:7d:19:00:cb:60:b4:dd:b6:52:10:
                    d1:d8:fb
                Exponent: 65537 (0x10001)
        X509v3 extensions:
            X509v3 Key Usage: critical
                Certificate Sign, CRL Sign
            X509v3 Basic Constraints: critical
                CA:TRUE, pathlen:0
            X509v3 Subject Key Identifier: 
                A3:9D:5A:C1:DA:0D:64:9E:55:C0:B0:1A:51:4C:0D:D9:71:3C:E3:96
            X509v3 Authority Key Identifier: 
                keyid:90:09:03:33:FB:BF:5F:8E:7E:5D:B4:3A:4A:E0:89:32:D6:19:0A:16

            Authority Information Access: 
                CA Issuers - URI:http//tim2.xws/ca/root-ca.cer

            X509v3 CRL Distribution Points: 

                Full Name:
                  URI:http//tim2.xws/ca/root-ca.crl

    Signature Algorithm: sha256WithRSAEncryption
         36:e9:3a:c1:f7:7b:65:5c:91:33:aa:17:17:89:96:26:58:e0:
         51:77:b0:3d:fa:b2:60:b2:cf:b5:0f:e2:35:b6:be:04:34:83:
         93:0f:7a:b1:63:ed:d3:bd:65:47:0e:76:fd:60:37:6d:13:ef:
         df:4a:25:03:9e:93:bb:86:4c:e5:a7:75:1c:78:7f:d1:54:e4:
         ef:fe:22:8b:e9:58:b9:d7:3b:83:59:2a:80:d5:b5:5c:74:b6:
         5b:66:ab:10:19:d8:5f:2b:32:c0:b4:38:92:18:b3:70:f6:e8:
         53:dc:56:a2:f5:20:69:c7:b8:21:4d:f9:c3:1f:6c:a6:2e:a4:
         51:c5:1b:71:db:60:15:9f:20:4b:c1:4c:9f:fd:77:d1:fb:68:
         c6:00:88:e0:5b:fd:32:1d:05:ed:cb:81:77:2d:ab:75:ca:f9:
         6d:86:a7:fc:b2:87:51:38:86:aa:43:f7:bd:33:59:b5:06:38:
         fa:4d:87:9a:1d:7f:aa:3c:3a:67:14:1e:05:2e:9e:7d:e1:3b:
         ef:11:5a:e6:85:5d:4d:29:06:48:3d:c7:fe:d3:43:e9:cc:53:
         05:ad:7e:df:03:7b:ed:de:b0:35:0a:24:be:e6:25:b2:42:db:
         38:56:9c:74:68:ec:22:c5:3f:00:bd:d6:80:ad:e4:af:ad:bf:
         fe:d7:19:b6:81:be:2b:3a:fa:06:76:81:59:b8:91:41:b7:e9:
         3e:f3:d9:6c:18:b2:15:81:ec:45:95:89:8a:1a:52:f2:26:14:
         42:7a:68:d3:91:00:f8:d9:92:9d:00:68:12:85:4e:b0:74:74:
         22:a7:7e:c8:6e:86:37:60:c4:83:ed:6d:3f:d8:82:49:ca:e5:
         2d:4a:90:dc:7d:bc:40:44:5e:44:ee:b1:05:52:b5:5c:37:8e:
         45:16:35:cc:49:6a:27:d8:4e:14:87:aa:c5:a0:67:03:1c:b9:
         e4:ab:c7:35:99:a9:f8:7a:4d:3d:6f:2e:0c:ec:e3:93:66:96:
         f1:f4:a0:b6:22:88:21:29:bd:04:ac:00:85:79:dd:e4:58:97:
         7a:b5:8d:dd:1e:7c:73:97:01:36:c2:fb:ad:1f:d1:5b:90:50:
         dd:14:0e:1f:26:1a:2e:6e:12:95:19:77:39:5a:c4:be:37:fc:
         ca:d1:49:48:18:7b:dd:16:ab:17:1c:00:ec:1a:e0:da:c9:55:
         c2:10:6c:2a:3a:e6:e2:0f:2c:60:74:44:ed:be:77:87:4c:34:
         bf:0b:e5:c4:87:38:6b:03:36:08:9e:97:63:bc:57:7a:6b:1d:
         6c:71:5c:65:48:1a:c8:26:d6:fe:48:0c:7b:2f:8e:38:e4:37:
         33:08:91:de:6f:4e:ae:50
-----BEGIN CERTIFICATE-----
MIIFzzCCA7egAwIBAgIBAjANBgkqhkiG9w0BAQsFADBDMQswCQYDVQQGEwJOTzEN
MAsGA1UECgwEQlNFUDEOMAwGA1UECwwFVGltIDIxFTATBgNVBAMMDFRpbTIgUm9v
dCBDQTAeFw0yMDA2MjYwOTI2MDZaFw0zMDA2MjYwOTI2MDZaMD4xCzAJBgNVBAYT
Ak5PMQ0wCwYDVQQKDARCU0VQMQ4wDAYDVQQLDAVUaW0gMjEQMA4GA1UEAwwHVGlt
MiBDQTCCAiIwDQYJKoZIhvcNAQEBBQADggIPADCCAgoCggIBAOjVV4+zKPUCt/By
bNR+/HtCLNswo0jnB1b9mGf5gkLvCEP3AFMxCMODVCNT66HEl8CoU0Pw2ZXE9y05
ErmcgXljE9KJ3jk/pwOJKBM97nWL0Uoa9HHWO4iiv1chC/FjVEIC/xb9S+4j+WQc
0yh/6nFRSs6uWByTX9iNBApKKksoO2zXqM756/lgA+fo1bxCdbbL5ftrgumgCmcW
68MNaxSVWPX9lS5OG0C6DdryL32RljLRfkf2SDw+hYKIhoFPqGOr/vzxeHfBW0Fq
2ZnzH/pw82+bYwsLR1zVthD5kfUAU+fMgAZwP7siAa5t/YaAo/d+AZWBYJLbCPJj
Qpy21OlkIBoSoEyaEVwNCjnsPf3nIDnj8qjJR2D5dTGBZHhqPcKeSEkSK3FoH1mt
mAHEimDcFeMNc9HDMHlDhF89zDukdG4ean2i5gES04RU53d9J5bHBXrtmvZoeDup
qvK+EU0wTyArdEkL7Dsb1zTSFyXwOr3Ky8JVzitt9nkT2dPvyhS95t4i+84Bx9e3
k4Ui/IcfeL35g4EdDbtbwJY9TAB/rES/lAaqgIKHsgfkmzTL2zwfDVqoE1edfvAj
6l4UUF0OPxJlp0rIcbCdyeeTnMgGJHr47YNxTCofhs6uvJGIWIj2f7e0HbRJ79BA
UZogIotsFpR9GQDLYLTdtlIQ0dj7AgMBAAGjgdIwgc8wDgYDVR0PAQH/BAQDAgEG
MBIGA1UdEwEB/wQIMAYBAf8CAQAwHQYDVR0OBBYEFKOdWsHaDWSeVcCwGlFMDdlx
POOWMB8GA1UdIwQYMBaAFJAJAzP7v1+Ofl20OkrgiTLWGQoWMDkGCCsGAQUFBwEB
BC0wKzApBggrBgEFBQcwAoYdaHR0cC8vdGltMi54d3MvY2Evcm9vdC1jYS5jZXIw
LgYDVR0fBCcwJTAjoCGgH4YdaHR0cC8vdGltMi54d3MvY2Evcm9vdC1jYS5jcmww
DQYJKoZIhvcNAQELBQADggIBADbpOsH3e2VckTOqFxeJliZY4FF3sD36smCyz7UP
4jW2vgQ0g5MPerFj7dO9ZUcOdv1gN20T799KJQOek7uGTOWndRx4f9FU5O/+Iovp
WLnXO4NZKoDVtVx0tltmqxAZ2F8rMsC0OJIYs3D26FPcVqL1IGnHuCFN+cMfbKYu
pFHFG3HbYBWfIEvBTJ/9d9H7aMYAiOBb/TIdBe3LgXctq3XK+W2Gp/yyh1E4hqpD
970zWbUGOPpNh5odf6o8OmcUHgUunn3hO+8RWuaFXU0pBkg9x/7TQ+nMUwWtft8D
e+3esDUKJL7mJbJC2zhWnHRo7CLFPwC91oCt5K+tv/7XGbaBvis6+gZ2gVm4kUG3
6T7z2WwYshWB7EWViYoaUvImFEJ6aNORAPjZkp0AaBKFTrB0dCKnfshuhjdgxIPt
bT/YgknK5S1KkNx9vEBEXkTusQVStVw3jkUWNcxJaifYThSHqsWgZwMcueSrxzWZ
qfh6TT1vLgzs45NmlvH0oLYiiCEpvQSsAIV53eRYl3q1jd0efHOXATbC+60f0VuQ
UN0UDh8mGi5uEpUZdzlaxL43/MrRSUgYe90WqxccAOwa4NrJVcIQbCo65uIPLGB0
RO2+d4dMNL8L5cSHOGsDNgiel2O8V3prHWxxXGVIGsgm1v5IDHsvjjjkNzMIkd5v
Tq5Q
-----END CERTIFICATE-----
