Certificate:
    Data:
        Version: 3 (0x2)
        Serial Number: 2 (0x2)
    Signature Algorithm: sha256WithRSAEncryption
        Issuer: C=NO, O=BSEP, OU=Tim 2, CN=Tim2 Root CA
        Validity
            Not Before: Jun 26 09:26:06 2020 GMT
            Not After : Jun 26 09:26:06 2030 GMT
        Subject: C=NO, O=BSEP, OU=Tim 2, CN=Tim2 CA
        Subject Public Key Info:
            Public Key Algorithm: rsaEncryption
                Public-Key: (4096 bit)
                Modulus:
                    00:e8:d5:57:8f:b3:28:f5:02:b7:f0:72:6c:d4:7e:
                    fc:7b:42:2c:db:30:a3:48:e7:07:56:fd:98:67:f9:
                    82:42:ef:08:43:f7:00:53:31:08:c3:83:54:23:53:
                    eb:a1:c4:97:c0:a8:53:43:f0:d9:95:c4:f7:2d:39:
                    12:b9:9c:81:79:63:13:d2:89:de:39:3f:a7:03:89:
                    28:13:3d:ee:75:8b:d1:4a:1a:f4:71:d6:3b:88:a2:
                    bf:57:21:0b:f1:63:54:42:02:ff:16:fd:4b:ee:23:
                    f9:64:1c:d3:28:7f:ea:71:51:4a:ce:ae:58:1c:93:
                    5f:d8:8d:04:0a:4a:2a:4b:28:3b:6c:d7:a8:ce:f9:
                    eb:f9:60:03:e7:e8:d5:bc:42:75:b6:cb:e5:fb:6b:
                    82:e9:a0:0a:67:16:eb:c3:0d:6b:14:95:58:f5:fd:
                    95:2e:4e:1b:40:ba:0d:da:f2:2f:7d:91:96:32:d1:
                    7e:47:f6:48:3c:3e:85:82:88:86:81:4f:a8:63:ab:
                    fe:fc:f1:78:77:c1:5b:41:6a:d9:99:f3:1f:fa:70:
                    f3:6f:9b:63:0b:0b:47:5c:d5:b6:10:f9:91:f5:00:
                    53:e7:cc:80:06:70:3f:bb:22:01:ae:6d:fd:86:80:
                    a3:f7:7e:01:95:81:60:92:db:08:f2:63:42:9c:b6:
                    d4:e9:64:20:1a:12:a0:4c:9a:11:5c:0d:0a:39:ec:
                    3d:fd:e7:20:39:e3:f2:a8:c9:47:60:f9:75:31:81:
                    64:78:6a:3d:c2:9e:48:49:12:2b:71:68:1f:59:ad:
                    98:01:c4:8a:60:dc:15:e3:0d:73:d1:c3:30:79:43:
                    84:5f:3d:cc:3b:a4:74:6e:1e:6a:7d:a2:e6:01:12:
                    d3:84:54:e7:77:7d:27:96:c7:05:7a:ed:9a:f6:68:
                    78:3b:a9:aa:f2:be:11:4d:30:4f:20:2b:74:49:0b:
                    ec:3b:1b:d7:34:d2:17:25:f0:3a:bd:ca:cb:c2:55:
                    ce:2b:6d:f6:79:13:d9:d3:ef:ca:14:bd:e6:de:22:
                    fb:ce:01:c7:d7:b7:93:85:22:fc:87:1f:78:bd:f9:
                    83:81:1d:0d:bb:5b:c0:96:3d:4c:00:7f:ac:44:bf:
                    94:06:aa:80:82:87:b2:07:e4:9b:34:cb:db:3c:1f:
                    0d:5a:a8:13:57:9d:7e:f0:23:ea:5e:14:50:5d:0e:
                    3f:12:65:a7:4a:c8:71:b0:9d:c9:e7:93:9c:c8:06:
                    24:7a:f8:ed:83:71:4c:2a:1f:86:ce:ae:bc:91:88:
                    58:88:f6:7f:b7:b4:1d:b4:49:ef:d0:40:51:9a:20:
                    22:8b:6c:16:94:7d:19:00:cb:60:b4:dd:b6:52:10:
                    d1:d8:fb
                Exponent: 65537 (0x10001)
        X509v3 extensions:
            X509v3 Key Usage: critical
                Certificate Sign, CRL Sign
            X509v3 Basic Constraints: critical
                CA:TRUE, pathlen:0
            X509v3 Subject Key Identifier: 
                A3:9D:5A:C1:DA:0D:64:9E:55:C0:B0:1A:51:4C:0D:D9:71:3C:E3:96
            X509v3 Authority Key Identifier: 
                keyid:90:09:03:33:FB:BF:5F:8E:7E:5D:B4:3A:4A:E0:89:32:D6:19:0A:16

            Authority Information Access: 
                CA Issuers - URI:http//tim2.xws/ca/root-ca.cer

            X509v3 CRL Distribution Points: 

                Full Name:
                  URI:http//tim2.xws/ca/root-ca.crl

    Signature Algorithm: sha256WithRSAEncryption
         36:e9:3a:c1:f7:7b:65:5c:91:33:aa:17:17:89:96:26:58:e0:
         51:77:b0:3d:fa:b2:60:b2:cf:b5:0f:e2:35:b6:be:04:34:83:
         93:0f:7a:b1:63:ed:d3:bd:65:47:0e:76:fd:60:37:6d:13:ef:
         df:4a:25:03:9e:93:bb:86:4c:e5:a7:75:1c:78:7f:d1:54:e4:
         ef:fe:22:8b:e9:58:b9:d7:3b:83:59:2a:80:d5:b5:5c:74:b6:
         5b:66:ab:10:19:d8:5f:2b:32:c0:b4:38:92:18:b3:70:f6:e8:
         53:dc:56:a2:f5:20:69:c7:b8:21:4d:f9:c3:1f:6c:a6:2e:a4:
         51:c5:1b:71:db:60:15:9f:20:4b:c1:4c:9f:fd:77:d1:fb:68:
         c6:00:88:e0:5b:fd:32:1d:05:ed:cb:81:77:2d:ab:75:ca:f9:
         6d:86:a7:fc:b2:87:51:38:86:aa:43:f7:bd:33:59:b5:06:38:
         fa:4d:87:9a:1d:7f:aa:3c:3a:67:14:1e:05:2e:9e:7d:e1:3b:
         ef:11:5a:e6:85:5d:4d:29:06:48:3d:c7:fe:d3:43:e9:cc:53:
         05:ad:7e:df:03:7b:ed:de:b0:35:0a:24:be:e6:25:b2:42:db:
         38:56:9c:74:68:ec:22:c5:3f:00:bd:d6:80:ad:e4:af:ad:bf:
         fe:d7:19:b6:81:be:2b:3a:fa:06:76:81:59:b8:91:41:b7:e9:
         3e:f3:d9:6c:18:b2:15:81:ec:45:95:89:8a:1a:52:f2:26:14:
         42:7a:68:d3:91:00:f8:d9:92:9d:00:68:12:85:4e:b0:74:74:
         22:a7:7e:c8:6e:86:37:60:c4:83:ed:6d:3f:d8:82:49:ca:e5:
         2d:4a:90:dc:7d:bc:40:44:5e:44:ee:b1:05:52:b5:5c:37:8e:
         45:16:35:cc:49:6a:27:d8:4e:14:87:aa:c5:a0:67:03:1c:b9:
         e4:ab:c7:35:99:a9:f8:7a:4d:3d:6f:2e:0c:ec:e3:93:66:96:
         f1:f4:a0:b6:22:88:21:29:bd:04:ac:00:85:79:dd:e4:58:97:
         7a:b5:8d:dd:1e:7c:73:97:01:36:c2:fb:ad:1f:d1:5b:90:50:
         dd:14:0e:1f:26:1a:2e:6e:12:95:19:77:39:5a:c4:be:37:fc:
         ca:d1:49:48:18:7b:dd:16:ab:17:1c:00:ec:1a:e0:da:c9:55:
         c2:10:6c:2a:3a:e6:e2:0f:2c:60:74:44:ed:be:77:87:4c:34:
         bf:0b:e5:c4:87:38:6b:03:36:08:9e:97:63:bc:57:7a:6b:1d:
         6c:71:5c:65:48:1a:c8:26:d6:fe:48:0c:7b:2f:8e:38:e4:37:
         33:08:91:de:6f:4e:ae:50
-----BEGIN CERTIFICATE-----
MIIFzzCCA7egAwIBAgIBAjANBgkqhkiG9w0BAQsFADBDMQswCQYDVQQGEwJOTzEN
MAsGA1UECgwEQlNFUDEOMAwGA1UECwwFVGltIDIxFTATBgNVBAMMDFRpbTIgUm9v
dCBDQTAeFw0yMDA2MjYwOTI2MDZaFw0zMDA2MjYwOTI2MDZaMD4xCzAJBgNVBAYT
Ak5PMQ0wCwYDVQQKDARCU0VQMQ4wDAYDVQQLDAVUaW0gMjEQMA4GA1UEAwwHVGlt
MiBDQTCCAiIwDQYJKoZIhvcNAQEBBQADggIPADCCAgoCggIBAOjVV4+zKPUCt/By
bNR+/HtCLNswo0jnB1b9mGf5gkLvCEP3AFMxCMODVCNT66HEl8CoU0Pw2ZXE9y05
ErmcgXljE9KJ3jk/pwOJKBM97nWL0Uoa9HHWO4iiv1chC/FjVEIC/xb9S+4j+WQc
0yh/6nFRSs6uWByTX9iNBApKKksoO2zXqM756/lgA+fo1bxCdbbL5ftrgumgCmcW
68MNaxSVWPX9lS5OG0C6DdryL32RljLRfkf2SDw+hYKIhoFPqGOr/vzxeHfBW0Fq
2ZnzH/pw82+bYwsLR1zVthD5kfUAU+fMgAZwP7siAa5t/YaAo/d+AZWBYJLbCPJj
Qpy21OlkIBoSoEyaEVwNCjnsPf3nIDnj8qjJR2D5dTGBZHhqPcKeSEkSK3FoH1mt
mAHEimDcFeMNc9HDMHlDhF89zDukdG4ean2i5gES04RU53d9J5bHBXrtmvZoeDup
qvK+EU0wTyArdEkL7Dsb1zTSFyXwOr3Ky8JVzitt9nkT2dPvyhS95t4i+84Bx9e3
k4Ui/IcfeL35g4EdDbtbwJY9TAB/rES/lAaqgIKHsgfkmzTL2zwfDVqoE1edfvAj
6l4UUF0OPxJlp0rIcbCdyeeTnMgGJHr47YNxTCofhs6uvJGIWIj2f7e0HbRJ79BA
UZogIotsFpR9GQDLYLTdtlIQ0dj7AgMBAAGjgdIwgc8wDgYDVR0PAQH/BAQDAgEG
MBIGA1UdEwEB/wQIMAYBAf8CAQAwHQYDVR0OBBYEFKOdWsHaDWSeVcCwGlFMDdlx
POOWMB8GA1UdIwQYMBaAFJAJAzP7v1+Ofl20OkrgiTLWGQoWMDkGCCsGAQUFBwEB
BC0wKzApBggrBgEFBQcwAoYdaHR0cC8vdGltMi54d3MvY2Evcm9vdC1jYS5jZXIw
LgYDVR0fBCcwJTAjoCGgH4YdaHR0cC8vdGltMi54d3MvY2Evcm9vdC1jYS5jcmww
DQYJKoZIhvcNAQELBQADggIBADbpOsH3e2VckTOqFxeJliZY4FF3sD36smCyz7UP
4jW2vgQ0g5MPerFj7dO9ZUcOdv1gN20T799KJQOek7uGTOWndRx4f9FU5O/+Iovp
WLnXO4NZKoDVtVx0tltmqxAZ2F8rMsC0OJIYs3D26FPcVqL1IGnHuCFN+cMfbKYu
pFHFG3HbYBWfIEvBTJ/9d9H7aMYAiOBb/TIdBe3LgXctq3XK+W2Gp/yyh1E4hqpD
970zWbUGOPpNh5odf6o8OmcUHgUunn3hO+8RWuaFXU0pBkg9x/7TQ+nMUwWtft8D
e+3esDUKJL7mJbJC2zhWnHRo7CLFPwC91oCt5K+tv/7XGbaBvis6+gZ2gVm4kUG3
6T7z2WwYshWB7EWViYoaUvImFEJ6aNORAPjZkp0AaBKFTrB0dCKnfshuhjdgxIPt
bT/YgknK5S1KkNx9vEBEXkTusQVStVw3jkUWNcxJaifYThSHqsWgZwMcueSrxzWZ
qfh6TT1vLgzs45NmlvH0oLYiiCEpvQSsAIV53eRYl3q1jd0efHOXATbC+60f0VuQ
UN0UDh8mGi5uEpUZdzlaxL43/MrRSUgYe90WqxccAOwa4NrJVcIQbCo65uIPLGB0
RO2+d4dMNL8L5cSHOGsDNgiel2O8V3prHWxxXGVIGsgm1v5IDHsvjjjkNzMIkd5v
Tq5Q
-----END CERTIFICATE-----
Certificate:
    Data:
        Version: 3 (0x2)
        Serial Number: 1 (0x1)
    Signature Algorithm: sha256WithRSAEncryption
        Issuer: C=NO, O=BSEP, OU=Tim 2, CN=Tim2 Root CA
        Validity
            Not Before: Jun 26 09:26:06 2020 GMT
            Not After : Jun 26 09:26:06 2030 GMT
        Subject: C=NO, O=BSEP, OU=Tim 2, CN=Tim2 Root CA
        Subject Public Key Info:
            Public Key Algorithm: rsaEncryption
                Public-Key: (4096 bit)
                Modulus:
                    00:b9:aa:a4:f5:8c:ef:f8:d2:6b:b7:9d:cc:80:56:
                    56:bd:d4:e9:de:d8:84:3b:fd:ed:2b:86:86:d4:09:
                    9c:ec:cd:11:00:09:3b:cc:b0:07:ca:7e:bf:c6:cb:
                    b3:0a:84:2e:ef:73:5c:a1:c0:74:30:19:af:ba:66:
                    d5:34:50:a3:62:cf:2b:d2:f5:d2:ff:da:13:e7:f3:
                    fb:ac:63:5f:8e:f2:45:1d:8e:ce:27:64:bd:ee:ec:
                    f4:35:f1:79:a5:c9:ed:37:3a:d1:00:25:15:67:d7:
                    a4:18:37:d2:2c:27:01:26:ef:ae:aa:de:29:73:72:
                    8a:1a:3d:fd:5b:2f:49:93:82:78:ef:69:fd:5d:5e:
                    f7:e7:9d:58:cd:56:af:2c:6b:72:f8:d3:3b:3f:eb:
                    5d:a4:dc:54:d3:72:de:06:b0:c0:17:99:34:72:06:
                    58:42:44:8b:4a:49:b8:ba:5d:af:c7:e0:a6:fa:0f:
                    24:02:cf:63:7a:57:6e:92:1d:f7:9c:48:e1:a0:4e:
                    54:62:17:12:89:11:9f:04:be:52:db:27:24:f0:4b:
                    8e:fd:7a:4f:fb:1d:cf:55:a6:52:e0:93:ba:e2:4e:
                    b8:ca:b5:d5:e9:e3:aa:32:8d:d7:b2:06:95:97:c1:
                    75:aa:e9:2a:50:7d:9c:fe:12:e6:52:97:b7:c3:39:
                    9a:b9:32:33:47:96:48:72:19:93:cb:65:1d:3a:f7:
                    65:65:28:61:a3:35:95:33:11:9b:88:64:a8:9d:89:
                    80:02:f6:68:c5:a6:16:78:ad:f8:0b:c9:4d:01:ff:
                    42:86:92:cd:4e:ae:be:28:15:de:c0:42:0a:ea:c5:
                    39:35:b1:e9:b2:2d:34:5a:fd:77:66:e7:c7:b6:c1:
                    f5:c9:1b:0d:b1:b3:b5:c3:a3:41:0c:7f:c9:0d:76:
                    08:5e:6f:94:7e:29:6a:13:4f:29:a2:9b:67:d3:72:
                    15:2c:d3:5a:e2:dc:bb:22:82:73:68:2d:f4:a9:04:
                    42:03:d8:96:24:98:b6:28:ec:31:96:1e:6e:cd:a1:
                    00:af:3e:a2:f1:3d:13:41:a8:a6:f3:f9:63:d5:32:
                    33:2e:87:14:dd:cd:df:56:a3:f7:90:cb:fc:40:eb:
                    93:66:8c:16:b4:41:79:0e:15:4b:6f:f6:61:5b:47:
                    8c:64:23:10:e9:a9:02:97:de:4e:f8:17:1e:1d:58:
                    90:fb:c8:c3:42:ff:4e:ab:3d:4d:5f:52:3f:1d:03:
                    aa:f9:ec:42:4c:46:a5:94:34:d7:a3:0e:59:48:c9:
                    47:38:0f:03:e9:b1:10:01:b3:e5:8f:77:a6:aa:19:
                    15:1a:33:4c:a4:d7:4e:e9:52:d2:81:3b:d6:ca:b1:
                    ea:39:0f
                Exponent: 65537 (0x10001)
        X509v3 extensions:
            X509v3 Key Usage: critical
                Certificate Sign, CRL Sign
            X509v3 Basic Constraints: critical
                CA:TRUE
            X509v3 Subject Key Identifier: 
                90:09:03:33:FB:BF:5F:8E:7E:5D:B4:3A:4A:E0:89:32:D6:19:0A:16
            X509v3 Authority Key Identifier: 
                keyid:90:09:03:33:FB:BF:5F:8E:7E:5D:B4:3A:4A:E0:89:32:D6:19:0A:16

    Signature Algorithm: sha256WithRSAEncryption
         78:1f:eb:a8:57:33:a8:17:ad:d6:61:06:c8:b6:d8:87:9f:5c:
         02:e2:07:42:78:50:11:f4:bd:53:e2:d5:06:eb:c9:a4:ef:53:
         8c:dd:6a:c9:a5:a2:14:d6:c5:84:e8:c3:60:c7:4f:30:c6:a9:
         42:2c:bf:64:46:5e:49:6f:f8:24:56:7a:16:f6:dd:13:1d:28:
         6f:da:c1:49:b9:47:fd:5c:81:35:b0:4b:34:45:bc:09:09:cb:
         2c:72:8f:05:33:bf:32:19:17:08:4b:66:f0:c3:c3:59:7f:a1:
         10:dc:e5:1f:25:cc:f5:c4:b7:f5:5e:4f:d6:d2:b6:7b:14:d6:
         66:49:c5:07:c1:1e:c5:a0:f7:b4:e3:8b:eb:1b:a3:97:27:4d:
         0f:55:ba:9c:00:5f:66:d0:74:01:56:70:3d:24:4f:d9:9a:74:
         f9:38:61:33:8d:05:53:b6:75:3f:c4:a9:42:51:c2:c9:54:62:
         45:f6:c2:e4:88:75:54:ae:e9:a8:3c:78:cc:71:58:b4:04:5a:
         1a:c3:3e:b7:21:ed:87:7d:c5:2b:99:e9:65:88:d4:99:90:c5:
         f1:e3:43:71:25:9e:4a:aa:47:f6:14:11:ca:48:16:92:19:6f:
         e3:3c:df:e4:39:90:44:80:20:f9:2d:7e:43:d2:f4:5a:6d:dc:
         48:d3:b4:04:55:87:36:d7:31:0b:92:d8:3c:f6:26:df:60:07:
         1a:5d:5f:17:76:bd:4a:06:d9:46:11:7d:ed:56:38:a2:f4:ee:
         10:69:83:9f:fd:d7:f3:7f:2a:a1:6a:33:2f:17:ff:54:17:ec:
         63:27:2c:8b:c1:73:fd:3e:54:37:fb:99:74:e2:20:b6:bc:f8:
         ea:67:48:35:4e:b7:00:36:4f:85:3e:30:24:9f:34:56:16:2b:
         e3:83:e8:63:c8:91:72:58:73:de:c2:e8:a4:4c:94:49:ff:3a:
         b8:05:04:65:61:7b:a4:42:61:bf:95:52:5a:26:a1:d1:4f:07:
         ba:88:19:1e:c8:5f:5e:c2:10:9e:22:0e:6c:7e:66:3c:8c:17:
         80:e6:38:af:1c:dc:ea:83:71:79:55:7f:6c:08:80:52:d0:59:
         59:d6:b6:e2:7c:0d:22:14:40:f1:af:bb:75:e5:16:2a:57:f0:
         76:ea:1b:9a:f6:e7:82:2c:7f:5d:dd:2a:fc:80:eb:aa:3f:73:
         34:b3:91:a8:9d:05:8e:7a:21:2c:26:e3:62:15:22:86:fe:af:
         a3:5a:0d:20:71:ce:1a:85:5f:e4:ff:63:29:ed:00:e4:83:25:
         91:93:a7:8d:3d:14:14:12:2b:3e:e9:59:5f:83:2c:3f:b8:cd:
         59:8e:5d:1a:de:ca:19:63
-----BEGIN CERTIFICATE-----
MIIFZDCCA0ygAwIBAgIBATANBgkqhkiG9w0BAQsFADBDMQswCQYDVQQGEwJOTzEN
MAsGA1UECgwEQlNFUDEOMAwGA1UECwwFVGltIDIxFTATBgNVBAMMDFRpbTIgUm9v
dCBDQTAeFw0yMDA2MjYwOTI2MDZaFw0zMDA2MjYwOTI2MDZaMEMxCzAJBgNVBAYT
Ak5PMQ0wCwYDVQQKDARCU0VQMQ4wDAYDVQQLDAVUaW0gMjEVMBMGA1UEAwwMVGlt
MiBSb290IENBMIICIjANBgkqhkiG9w0BAQEFAAOCAg8AMIICCgKCAgEAuaqk9Yzv
+NJrt53MgFZWvdTp3tiEO/3tK4aG1Amc7M0RAAk7zLAHyn6/xsuzCoQu73NcocB0
MBmvumbVNFCjYs8r0vXS/9oT5/P7rGNfjvJFHY7OJ2S97uz0NfF5pcntNzrRACUV
Z9ekGDfSLCcBJu+uqt4pc3KKGj39Wy9Jk4J472n9XV73551YzVavLGty+NM7P+td
pNxU03LeBrDAF5k0cgZYQkSLSkm4ul2vx+Cm+g8kAs9jeldukh33nEjhoE5UYhcS
iRGfBL5S2yck8EuO/XpP+x3PVaZS4JO64k64yrXV6eOqMo3XsgaVl8F1qukqUH2c
/hLmUpe3wzmauTIzR5ZIchmTy2UdOvdlZShhozWVMxGbiGSonYmAAvZoxaYWeK34
C8lNAf9ChpLNTq6+KBXewEIK6sU5NbHpsi00Wv13ZufHtsH1yRsNsbO1w6NBDH/J
DXYIXm+UfilqE08poptn03IVLNNa4ty7IoJzaC30qQRCA9iWJJi2KOwxlh5uzaEA
rz6i8T0TQaim8/lj1TIzLocU3c3fVqP3kMv8QOuTZowWtEF5DhVLb/ZhW0eMZCMQ
6akCl95O+BceHViQ+8jDQv9Oqz1NX1I/HQOq+exCTEallDTXow5ZSMlHOA8D6bEQ
AbPlj3emqhkVGjNMpNdO6VLSgTvWyrHqOQ8CAwEAAaNjMGEwDgYDVR0PAQH/BAQD
AgEGMA8GA1UdEwEB/wQFMAMBAf8wHQYDVR0OBBYEFJAJAzP7v1+Ofl20OkrgiTLW
GQoWMB8GA1UdIwQYMBaAFJAJAzP7v1+Ofl20OkrgiTLWGQoWMA0GCSqGSIb3DQEB
CwUAA4ICAQB4H+uoVzOoF63WYQbIttiHn1wC4gdCeFAR9L1T4tUG68mk71OM3WrJ
paIU1sWE6MNgx08wxqlCLL9kRl5Jb/gkVnoW9t0THShv2sFJuUf9XIE1sEs0RbwJ
Ccssco8FM78yGRcIS2bww8NZf6EQ3OUfJcz1xLf1Xk/W0rZ7FNZmScUHwR7FoPe0
44vrG6OXJ00PVbqcAF9m0HQBVnA9JE/ZmnT5OGEzjQVTtnU/xKlCUcLJVGJF9sLk
iHVUrumoPHjMcVi0BFoawz63Ie2HfcUrmelliNSZkMXx40NxJZ5Kqkf2FBHKSBaS
GW/jPN/kOZBEgCD5LX5D0vRabdxI07QEVYc21zELktg89ibfYAcaXV8Xdr1KBtlG
EX3tVjii9O4QaYOf/dfzfyqhajMvF/9UF+xjJyyLwXP9PlQ3+5l04iC2vPjqZ0g1
TrcANk+FPjAknzRWFivjg+hjyJFyWHPewuikTJRJ/zq4BQRlYXukQmG/lVJaJqHR
Twe6iBkeyF9ewhCeIg5sfmY8jBeA5jivHNzqg3F5VX9sCIBS0FlZ1rbifA0iFEDx
r7t15RYqV/B26hua9ueCLH9d3Sr8gOuqP3M0s5GonQWOeiEsJuNiFSKG/q+jWg0g
cc4ahV/k/2Mp7QDkgyWRk6eNPRQUEis+6Vlfgyw/uM1Zjl0a3soZYw==
-----END CERTIFICATE-----
