Certificate:
    Data:
        Version: 3 (0x2)
        Serial Number: 1 (0x1)
    Signature Algorithm: sha256WithRSAEncryption
        Issuer: C=NO, O=BSEP, OU=Tim 2, CN=Tim2 Root CA
        Validity
            Not Before: Jun 26 09:26:06 2020 GMT
            Not After : Jun 26 09:26:06 2030 GMT
        Subject: C=NO, O=BSEP, OU=Tim 2, CN=Tim2 Root CA
        Subject Public Key Info:
            Public Key Algorithm: rsaEncryption
                Public-Key: (4096 bit)
                Modulus:
                    00:b9:aa:a4:f5:8c:ef:f8:d2:6b:b7:9d:cc:80:56:
                    56:bd:d4:e9:de:d8:84:3b:fd:ed:2b:86:86:d4:09:
                    9c:ec:cd:11:00:09:3b:cc:b0:07:ca:7e:bf:c6:cb:
                    b3:0a:84:2e:ef:73:5c:a1:c0:74:30:19:af:ba:66:
                    d5:34:50:a3:62:cf:2b:d2:f5:d2:ff:da:13:e7:f3:
                    fb:ac:63:5f:8e:f2:45:1d:8e:ce:27:64:bd:ee:ec:
                    f4:35:f1:79:a5:c9:ed:37:3a:d1:00:25:15:67:d7:
                    a4:18:37:d2:2c:27:01:26:ef:ae:aa:de:29:73:72:
                    8a:1a:3d:fd:5b:2f:49:93:82:78:ef:69:fd:5d:5e:
                    f7:e7:9d:58:cd:56:af:2c:6b:72:f8:d3:3b:3f:eb:
                    5d:a4:dc:54:d3:72:de:06:b0:c0:17:99:34:72:06:
                    58:42:44:8b:4a:49:b8:ba:5d:af:c7:e0:a6:fa:0f:
                    24:02:cf:63:7a:57:6e:92:1d:f7:9c:48:e1:a0:4e:
                    54:62:17:12:89:11:9f:04:be:52:db:27:24:f0:4b:
                    8e:fd:7a:4f:fb:1d:cf:55:a6:52:e0:93:ba:e2:4e:
                    b8:ca:b5:d5:e9:e3:aa:32:8d:d7:b2:06:95:97:c1:
                    75:aa:e9:2a:50:7d:9c:fe:12:e6:52:97:b7:c3:39:
                    9a:b9:32:33:47:96:48:72:19:93:cb:65:1d:3a:f7:
                    65:65:28:61:a3:35:95:33:11:9b:88:64:a8:9d:89:
                    80:02:f6:68:c5:a6:16:78:ad:f8:0b:c9:4d:01:ff:
                    42:86:92:cd:4e:ae:be:28:15:de:c0:42:0a:ea:c5:
                    39:35:b1:e9:b2:2d:34:5a:fd:77:66:e7:c7:b6:c1:
                    f5:c9:1b:0d:b1:b3:b5:c3:a3:41:0c:7f:c9:0d:76:
                    08:5e:6f:94:7e:29:6a:13:4f:29:a2:9b:67:d3:72:
                    15:2c:d3:5a:e2:dc:bb:22:82:73:68:2d:f4:a9:04:
                    42:03:d8:96:24:98:b6:28:ec:31:96:1e:6e:cd:a1:
                    00:af:3e:a2:f1:3d:13:41:a8:a6:f3:f9:63:d5:32:
                    33:2e:87:14:dd:cd:df:56:a3:f7:90:cb:fc:40:eb:
                    93:66:8c:16:b4:41:79:0e:15:4b:6f:f6:61:5b:47:
                    8c:64:23:10:e9:a9:02:97:de:4e:f8:17:1e:1d:58:
                    90:fb:c8:c3:42:ff:4e:ab:3d:4d:5f:52:3f:1d:03:
                    aa:f9:ec:42:4c:46:a5:94:34:d7:a3:0e:59:48:c9:
                    47:38:0f:03:e9:b1:10:01:b3:e5:8f:77:a6:aa:19:
                    15:1a:33:4c:a4:d7:4e:e9:52:d2:81:3b:d6:ca:b1:
                    ea:39:0f
                Exponent: 65537 (0x10001)
        X509v3 extensions:
            X509v3 Key Usage: critical
                Certificate Sign, CRL Sign
            X509v3 Basic Constraints: critical
                CA:TRUE
            X509v3 Subject Key Identifier: 
                90:09:03:33:FB:BF:5F:8E:7E:5D:B4:3A:4A:E0:89:32:D6:19:0A:16
            X509v3 Authority Key Identifier: 
                keyid:90:09:03:33:FB:BF:5F:8E:7E:5D:B4:3A:4A:E0:89:32:D6:19:0A:16

    Signature Algorithm: sha256WithRSAEncryption
         78:1f:eb:a8:57:33:a8:17:ad:d6:61:06:c8:b6:d8:87:9f:5c:
         02:e2:07:42:78:50:11:f4:bd:53:e2:d5:06:eb:c9:a4:ef:53:
         8c:dd:6a:c9:a5:a2:14:d6:c5:84:e8:c3:60:c7:4f:30:c6:a9:
         42:2c:bf:64:46:5e:49:6f:f8:24:56:7a:16:f6:dd:13:1d:28:
         6f:da:c1:49:b9:47:fd:5c:81:35:b0:4b:34:45:bc:09:09:cb:
         2c:72:8f:05:33:bf:32:19:17:08:4b:66:f0:c3:c3:59:7f:a1:
         10:dc:e5:1f:25:cc:f5:c4:b7:f5:5e:4f:d6:d2:b6:7b:14:d6:
         66:49:c5:07:c1:1e:c5:a0:f7:b4:e3:8b:eb:1b:a3:97:27:4d:
         0f:55:ba:9c:00:5f:66:d0:74:01:56:70:3d:24:4f:d9:9a:74:
         f9:38:61:33:8d:05:53:b6:75:3f:c4:a9:42:51:c2:c9:54:62:
         45:f6:c2:e4:88:75:54:ae:e9:a8:3c:78:cc:71:58:b4:04:5a:
         1a:c3:3e:b7:21:ed:87:7d:c5:2b:99:e9:65:88:d4:99:90:c5:
         f1:e3:43:71:25:9e:4a:aa:47:f6:14:11:ca:48:16:92:19:6f:
         e3:3c:df:e4:39:90:44:80:20:f9:2d:7e:43:d2:f4:5a:6d:dc:
         48:d3:b4:04:55:87:36:d7:31:0b:92:d8:3c:f6:26:df:60:07:
         1a:5d:5f:17:76:bd:4a:06:d9:46:11:7d:ed:56:38:a2:f4:ee:
         10:69:83:9f:fd:d7:f3:7f:2a:a1:6a:33:2f:17:ff:54:17:ec:
         63:27:2c:8b:c1:73:fd:3e:54:37:fb:99:74:e2:20:b6:bc:f8:
         ea:67:48:35:4e:b7:00:36:4f:85:3e:30:24:9f:34:56:16:2b:
         e3:83:e8:63:c8:91:72:58:73:de:c2:e8:a4:4c:94:49:ff:3a:
         b8:05:04:65:61:7b:a4:42:61:bf:95:52:5a:26:a1:d1:4f:07:
         ba:88:19:1e:c8:5f:5e:c2:10:9e:22:0e:6c:7e:66:3c:8c:17:
         80:e6:38:af:1c:dc:ea:83:71:79:55:7f:6c:08:80:52:d0:59:
         59:d6:b6:e2:7c:0d:22:14:40:f1:af:bb:75:e5:16:2a:57:f0:
         76:ea:1b:9a:f6:e7:82:2c:7f:5d:dd:2a:fc:80:eb:aa:3f:73:
         34:b3:91:a8:9d:05:8e:7a:21:2c:26:e3:62:15:22:86:fe:af:
         a3:5a:0d:20:71:ce:1a:85:5f:e4:ff:63:29:ed:00:e4:83:25:
         91:93:a7:8d:3d:14:14:12:2b:3e:e9:59:5f:83:2c:3f:b8:cd:
         59:8e:5d:1a:de:ca:19:63
-----BEGIN CERTIFICATE-----
MIIFZDCCA0ygAwIBAgIBATANBgkqhkiG9w0BAQsFADBDMQswCQYDVQQGEwJOTzEN
MAsGA1UECgwEQlNFUDEOMAwGA1UECwwFVGltIDIxFTATBgNVBAMMDFRpbTIgUm9v
dCBDQTAeFw0yMDA2MjYwOTI2MDZaFw0zMDA2MjYwOTI2MDZaMEMxCzAJBgNVBAYT
Ak5PMQ0wCwYDVQQKDARCU0VQMQ4wDAYDVQQLDAVUaW0gMjEVMBMGA1UEAwwMVGlt
MiBSb290IENBMIICIjANBgkqhkiG9w0BAQEFAAOCAg8AMIICCgKCAgEAuaqk9Yzv
+NJrt53MgFZWvdTp3tiEO/3tK4aG1Amc7M0RAAk7zLAHyn6/xsuzCoQu73NcocB0
MBmvumbVNFCjYs8r0vXS/9oT5/P7rGNfjvJFHY7OJ2S97uz0NfF5pcntNzrRACUV
Z9ekGDfSLCcBJu+uqt4pc3KKGj39Wy9Jk4J472n9XV73551YzVavLGty+NM7P+td
pNxU03LeBrDAF5k0cgZYQkSLSkm4ul2vx+Cm+g8kAs9jeldukh33nEjhoE5UYhcS
iRGfBL5S2yck8EuO/XpP+x3PVaZS4JO64k64yrXV6eOqMo3XsgaVl8F1qukqUH2c
/hLmUpe3wzmauTIzR5ZIchmTy2UdOvdlZShhozWVMxGbiGSonYmAAvZoxaYWeK34
C8lNAf9ChpLNTq6+KBXewEIK6sU5NbHpsi00Wv13ZufHtsH1yRsNsbO1w6NBDH/J
DXYIXm+UfilqE08poptn03IVLNNa4ty7IoJzaC30qQRCA9iWJJi2KOwxlh5uzaEA
rz6i8T0TQaim8/lj1TIzLocU3c3fVqP3kMv8QOuTZowWtEF5DhVLb/ZhW0eMZCMQ
6akCl95O+BceHViQ+8jDQv9Oqz1NX1I/HQOq+exCTEallDTXow5ZSMlHOA8D6bEQ
AbPlj3emqhkVGjNMpNdO6VLSgTvWyrHqOQ8CAwEAAaNjMGEwDgYDVR0PAQH/BAQD
AgEGMA8GA1UdEwEB/wQFMAMBAf8wHQYDVR0OBBYEFJAJAzP7v1+Ofl20OkrgiTLW
GQoWMB8GA1UdIwQYMBaAFJAJAzP7v1+Ofl20OkrgiTLWGQoWMA0GCSqGSIb3DQEB
CwUAA4ICAQB4H+uoVzOoF63WYQbIttiHn1wC4gdCeFAR9L1T4tUG68mk71OM3WrJ
paIU1sWE6MNgx08wxqlCLL9kRl5Jb/gkVnoW9t0THShv2sFJuUf9XIE1sEs0RbwJ
Ccssco8FM78yGRcIS2bww8NZf6EQ3OUfJcz1xLf1Xk/W0rZ7FNZmScUHwR7FoPe0
44vrG6OXJ00PVbqcAF9m0HQBVnA9JE/ZmnT5OGEzjQVTtnU/xKlCUcLJVGJF9sLk
iHVUrumoPHjMcVi0BFoawz63Ie2HfcUrmelliNSZkMXx40NxJZ5Kqkf2FBHKSBaS
GW/jPN/kOZBEgCD5LX5D0vRabdxI07QEVYc21zELktg89ibfYAcaXV8Xdr1KBtlG
EX3tVjii9O4QaYOf/dfzfyqhajMvF/9UF+xjJyyLwXP9PlQ3+5l04iC2vPjqZ0g1
TrcANk+FPjAknzRWFivjg+hjyJFyWHPewuikTJRJ/zq4BQRlYXukQmG/lVJaJqHR
Twe6iBkeyF9ewhCeIg5sfmY8jBeA5jivHNzqg3F5VX9sCIBS0FlZ1rbifA0iFEDx
r7t15RYqV/B26hua9ueCLH9d3Sr8gOuqP3M0s5GonQWOeiEsJuNiFSKG/q+jWg0g
cc4ahV/k/2Mp7QDkgyWRk6eNPRQUEis+6Vlfgyw/uM1Zjl0a3soZYw==
-----END CERTIFICATE-----
