Certificate:
    Data:
        Version: 3 (0x2)
        Serial Number: 4 (0x4)
    Signature Algorithm: sha256WithRSAEncryption
        Issuer: C=NO, O=BSEP, OU=Tim 2, CN=Tim2 CA
        Validity
            Not Before: Jun 26 09:26:09 2020 GMT
            Not After : Jun 26 09:26:09 2022 GMT
        Subject: C=NO, O=BSEP, OU=Tim 2, CN=logan
        Subject Public Key Info:
            Public Key Algorithm: rsaEncryption
                Public-Key: (4096 bit)
                Modulus:
                    00:eb:25:c8:78:59:2e:93:14:06:c2:5a:97:df:09:
                    85:be:3f:4c:67:ab:14:7f:d5:ec:e2:62:db:68:61:
                    3b:09:74:ae:23:11:84:d7:b0:97:7e:43:e9:87:75:
                    f6:5b:cd:c8:1c:8f:cb:8e:bb:a4:b2:d0:0b:a6:6b:
                    a3:8a:24:e3:88:00:5f:26:f6:f7:7a:9b:12:c4:2c:
                    ef:6f:26:a6:18:40:48:3b:95:48:8b:9d:fd:7b:18:
                    fd:73:6b:e4:6c:3e:13:ea:06:72:6b:c6:5c:c4:c0:
                    75:43:6c:61:e4:a3:a6:07:7e:cb:52:3e:91:99:d7:
                    5d:4c:f2:a0:14:dd:92:9b:bd:16:28:9e:f9:03:3a:
                    d8:39:01:c1:12:9e:20:d0:d2:38:2a:cb:70:97:84:
                    a8:3c:aa:c9:57:95:d5:5e:1f:0d:18:d7:2a:13:50:
                    f6:01:d4:18:3d:f5:8c:81:59:e7:c6:ae:2e:92:e1:
                    36:55:e0:c4:61:64:ca:0e:1e:8c:6e:2e:73:c3:3e:
                    d4:94:80:48:1d:1a:65:bc:04:dd:80:11:d1:69:f5:
                    5a:91:8b:f7:ea:b7:b4:d8:48:97:78:2b:45:81:38:
                    cd:c4:ab:c7:1c:bf:c4:68:a1:13:2f:ce:b3:10:2c:
                    4c:02:8a:25:40:b9:43:cf:0d:95:eb:67:85:8d:fe:
                    a7:03:a8:dd:3a:59:9f:ce:df:51:b5:b5:19:32:a8:
                    f5:7c:46:79:a5:f8:a0:5f:65:5b:20:8c:25:2f:e7:
                    69:50:c9:b5:cf:68:6f:fc:99:11:11:31:bb:5e:26:
                    d5:b2:4c:ca:d5:07:a4:bb:59:2d:76:3c:e3:da:75:
                    13:54:4f:c9:ca:c7:16:54:28:ce:ca:2f:ee:7a:8f:
                    d0:cb:f4:69:9b:93:8d:c9:d1:e9:62:be:5a:d5:a7:
                    31:c9:85:56:6a:c8:b0:ab:62:ef:3a:f2:72:da:fe:
                    39:00:e2:63:8d:3c:7b:c0:bc:91:ff:7c:b8:5b:5c:
                    aa:f4:1f:ef:6e:69:0b:54:e2:3a:7a:ac:57:f9:ad:
                    c9:a6:20:62:1b:71:22:a7:9b:80:35:42:42:89:82:
                    f3:ab:83:10:8f:fb:0a:26:c2:3a:06:db:16:9d:93:
                    87:2f:f7:8b:fc:5b:e8:d4:ad:d4:0a:76:a6:b8:f0:
                    e0:5d:a3:f3:58:db:b6:19:ed:8b:15:d7:4a:26:2b:
                    f5:cc:a2:26:01:f7:44:9b:45:6d:cc:84:be:71:17:
                    7b:0c:58:d7:18:dc:ce:8f:e2:59:d9:28:04:40:c5:
                    58:cf:fe:e9:b4:c6:69:ab:28:e9:c6:0d:7c:5b:e1:
                    54:35:3d:24:88:8c:75:c1:2b:4e:17:bb:77:d7:89:
                    e4:6d:55
                Exponent: 65537 (0x10001)
        X509v3 extensions:
            X509v3 Key Usage: critical
                Digital Signature, Key Encipherment
            X509v3 Basic Constraints: 
                CA:FALSE
            X509v3 Extended Key Usage: 
                TLS Web Server Authentication, TLS Web Client Authentication
            X509v3 Subject Key Identifier: 
                E5:09:4F:59:40:56:F4:0B:94:D1:69:CE:DC:71:04:DA:26:6F:1C:BD
            X509v3 Authority Key Identifier: 
                keyid:A3:9D:5A:C1:DA:0D:64:9E:55:C0:B0:1A:51:4C:0D:D9:71:3C:E3:96

            Authority Information Access: 
                CA Issuers - URI:http//tim2.xws/ca/tls-ca.cer

            X509v3 CRL Distribution Points: 

                Full Name:
                  URI:http//tim2.xws/ca/tls-ca.crl

            X509v3 Subject Alternative Name: 
                DNS:tim2.xws, DNS:host.docker.internal, DNS:localhost, DNS:eureka, IP Address:172.20.0.0, IP Address:26.206.31.193, IP Address:10.0.2.15, IP Address:192.168.1.7, IP Address:192.168.99.1, IP Address:127.0.0.1
    Signature Algorithm: sha256WithRSAEncryption
         32:8b:90:22:52:07:b3:1a:3b:11:4d:83:2b:f4:cb:c2:89:a9:
         e7:22:04:36:d0:53:17:13:9f:e5:e8:b3:63:65:e2:06:cd:5b:
         38:ba:4c:86:5a:27:49:45:3d:45:d5:76:e3:47:e7:b3:c0:d6:
         67:49:40:1d:10:4b:2e:5e:53:83:be:b3:d1:7c:7e:9c:05:0f:
         ca:3c:52:04:73:05:bb:f5:15:a1:b9:bd:f2:46:98:41:06:f0:
         49:0d:33:13:54:33:03:b0:08:3b:06:f2:22:62:59:1e:d9:f0:
         44:aa:85:c8:38:a1:cf:6f:31:1e:e8:d3:05:6a:4c:1f:f3:29:
         64:2c:f4:4c:6d:0d:66:b7:65:c2:2f:9c:2d:15:97:82:3d:76:
         6a:99:2f:2d:87:dd:c5:96:97:cc:00:24:68:3d:22:f8:3e:83:
         5d:9a:51:1d:4a:f0:0f:67:d0:64:73:64:ee:36:52:70:3e:a8:
         42:90:ca:50:77:4f:2c:d9:c9:08:0a:29:3f:f7:39:33:7f:10:
         13:f7:7f:77:79:2a:f1:55:47:8e:19:7c:10:da:07:49:34:0a:
         67:2c:40:41:19:d4:cf:57:b9:aa:48:eb:58:0a:d0:6e:fb:0b:
         a4:be:f8:c5:a6:c5:67:69:7e:76:e9:08:68:65:de:ce:99:57:
         57:00:9f:ec:6d:f4:16:88:79:09:d0:4b:50:6f:6b:39:8d:ce:
         ff:f7:9f:83:dd:00:ab:53:7d:08:ea:0a:e5:48:89:28:6c:11:
         30:68:54:6e:9d:47:d1:1e:ab:bb:de:f3:62:02:2f:67:43:d6:
         b3:75:f0:9f:83:b4:73:51:66:f7:34:53:20:41:df:34:13:db:
         ce:f4:d4:2a:05:ce:87:da:b1:d5:0c:61:cf:3d:53:bd:35:8f:
         64:e7:af:52:71:2a:78:e4:7c:ec:7a:53:36:4e:c0:18:b8:4e:
         4b:90:c7:c1:e7:2f:0b:32:36:b5:f9:86:f6:6a:b1:3d:87:5e:
         a4:86:61:2b:94:93:c9:e3:94:f6:a0:2b:8d:52:d2:40:71:09:
         f2:2d:d4:f0:3d:a2:62:fc:14:1f:70:8e:3a:db:24:0c:02:ae:
         84:d0:81:6c:0d:55:5c:b2:89:47:5a:12:7f:d3:ed:21:fd:81:
         b9:03:90:7f:88:00:f5:42:bd:95:af:56:7f:1a:55:ab:9b:f1:
         b8:73:fa:df:c8:fa:0d:4a:26:f4:d5:22:14:51:31:4d:7b:f5:
         09:59:97:39:6a:da:cf:82:5b:e0:4f:7f:d8:64:77:93:76:8b:
         70:e9:f1:71:4d:92:1d:14:d8:05:e1:aa:e3:76:a4:9b:56:a8:
         28:9c:e7:f3:6b:bb:a6:cb
-----BEGIN CERTIFICATE-----
MIIGQDCCBCigAwIBAgIBBDANBgkqhkiG9w0BAQsFADA+MQswCQYDVQQGEwJOTzEN
MAsGA1UECgwEQlNFUDEOMAwGA1UECwwFVGltIDIxEDAOBgNVBAMMB1RpbTIgQ0Ew
HhcNMjAwNjI2MDkyNjA5WhcNMjIwNjI2MDkyNjA5WjA8MQswCQYDVQQGEwJOTzEN
MAsGA1UECgwEQlNFUDEOMAwGA1UECwwFVGltIDIxDjAMBgNVBAMMBWxvZ2FuMIIC
IjANBgkqhkiG9w0BAQEFAAOCAg8AMIICCgKCAgEA6yXIeFkukxQGwlqX3wmFvj9M
Z6sUf9Xs4mLbaGE7CXSuIxGE17CXfkPph3X2W83IHI/LjrukstALpmujiiTjiABf
Jvb3epsSxCzvbyamGEBIO5VIi539exj9c2vkbD4T6gZya8ZcxMB1Q2xh5KOmB37L
Uj6RmdddTPKgFN2Sm70WKJ75AzrYOQHBEp4g0NI4Kstwl4SoPKrJV5XVXh8NGNcq
E1D2AdQYPfWMgVnnxq4ukuE2VeDEYWTKDh6Mbi5zwz7UlIBIHRplvATdgBHRafVa
kYv36re02EiXeCtFgTjNxKvHHL/EaKETL86zECxMAoolQLlDzw2V62eFjf6nA6jd
Olmfzt9RtbUZMqj1fEZ5pfigX2VbIIwlL+dpUMm1z2hv/JkRETG7XibVskzK1Qek
u1ktdjzj2nUTVE/JyscWVCjOyi/ueo/Qy/Rpm5ONydHpYr5a1acxyYVWasiwq2Lv
OvJy2v45AOJjjTx7wLyR/3y4W1yq9B/vbmkLVOI6eqxX+a3JpiBiG3Eip5uANUJC
iYLzq4MQj/sKJsI6BtsWnZOHL/eL/Fvo1K3UCnamuPDgXaPzWNu2Ge2LFddKJiv1
zKImAfdEm0VtzIS+cRd7DFjXGNzOj+JZ2SgEQMVYz/7ptMZpqyjpxg18W+FUNT0k
iIx1wStOF7t314nkbVUCAwEAAaOCAUkwggFFMA4GA1UdDwEB/wQEAwIFoDAJBgNV
HRMEAjAAMB0GA1UdJQQWMBQGCCsGAQUFBwMBBggrBgEFBQcDAjAdBgNVHQ4EFgQU
5QlPWUBW9AuU0WnO3HEE2iZvHL0wHwYDVR0jBBgwFoAUo51awdoNZJ5VwLAaUUwN
2XE845YwOAYIKwYBBQUHAQEELDAqMCgGCCsGAQUFBzAChhxodHRwLy90aW0yLnh3
cy9jYS90bHMtY2EuY2VyMC0GA1UdHwQmMCQwIqAgoB6GHGh0dHAvL3RpbTIueHdz
L2NhL3Rscy1jYS5jcmwwYAYDVR0RBFkwV4IIdGltMi54d3OCFGhvc3QuZG9ja2Vy
LmludGVybmFsgglsb2NhbGhvc3SCBmV1cmVrYYcErBQAAIcEGs4fwYcECgACD4cE
wKgBB4cEwKhjAYcEfwAAATANBgkqhkiG9w0BAQsFAAOCAgEAMouQIlIHsxo7EU2D
K/TLwomp5yIENtBTFxOf5eizY2XiBs1bOLpMhlonSUU9RdV240fns8DWZ0lAHRBL
Ll5Tg76z0Xx+nAUPyjxSBHMFu/UVobm98kaYQQbwSQ0zE1QzA7AIOwbyImJZHtnw
RKqFyDihz28xHujTBWpMH/MpZCz0TG0NZrdlwi+cLRWXgj12apkvLYfdxZaXzAAk
aD0i+D6DXZpRHUrwD2fQZHNk7jZScD6oQpDKUHdPLNnJCAopP/c5M38QE/d/d3kq
8VVHjhl8ENoHSTQKZyxAQRnUz1e5qkjrWArQbvsLpL74xabFZ2l+dukIaGXezplX
VwCf7G30Foh5CdBLUG9rOY3O//efg90Aq1N9COoK5UiJKGwRMGhUbp1H0R6ru97z
YgIvZ0PWs3Xwn4O0c1Fm9zRTIEHfNBPbzvTUKgXOh9qx1Qxhzz1TvTWPZOevUnEq
eOR87HpTNk7AGLhOS5DHwecvCzI2tfmG9mqxPYdepIZhK5STyeOU9qArjVLSQHEJ
8i3U8D2iYvwUH3COOtskDAKuhNCBbA1VXLKJR1oSf9PtIf2BuQOQf4gA9UK9la9W
fxpVq5vxuHP638j6DUom9NUiFFExTXv1CVmXOWraz4Jb4E9/2GR3k3aLcOnxcU2S
HRTYBeGq43akm1aoKJzn82u7pss=
-----END CERTIFICATE-----
