Certificate:
    Data:
        Version: 3 (0x2)
        Serial Number: 3 (0x3)
    Signature Algorithm: sha256WithRSAEncryption
        Issuer: C=NO, O=BSEP, OU=Tim 2, CN=Tim2 CA
        Validity
            Not Before: Jun 20 12:48:02 2020 GMT
            Not After : Jun 20 12:48:02 2022 GMT
        Subject: C=NO, O=BSEP, OU=Tim 2, CN=logan
        Subject Public Key Info:
            Public Key Algorithm: rsaEncryption
                Public-Key: (4096 bit)
                Modulus:
                    00:c5:80:0d:3a:1e:a8:d4:6a:6e:e6:16:f6:e9:af:
                    45:91:50:f5:7f:c2:06:0e:25:9a:30:0b:44:c1:b9:
                    31:80:ef:e4:de:b2:ec:49:dc:ff:e4:89:cc:6e:db:
                    48:56:f0:73:73:90:80:a7:5c:66:2f:5b:5a:0c:f8:
                    7f:ca:36:5b:c3:3d:e3:a9:ff:2a:c6:78:2b:07:78:
                    35:08:c5:35:6d:aa:0e:b9:75:5e:a6:d7:8b:5b:ae:
                    42:8b:35:8c:3d:a6:0e:ab:df:ca:df:71:23:b2:ee:
                    17:76:cb:ff:fe:64:b5:87:66:4e:6c:a3:99:89:7e:
                    03:c9:68:ba:e9:7b:3d:5a:8d:55:42:ac:9a:4d:13:
                    9f:b0:71:61:2c:36:28:42:ca:f7:52:a9:b1:a8:46:
                    7f:f5:99:9a:3e:dd:91:a6:0a:b3:e6:4b:8d:1e:fe:
                    52:d0:b3:7f:2f:1d:7a:cb:e5:b0:ae:bc:41:63:16:
                    dd:4a:89:03:06:b0:f5:c8:92:1a:d3:b7:0a:2f:46:
                    a2:a0:5f:24:72:eb:0f:bc:fd:cb:4e:bc:02:21:7d:
                    8e:27:de:ff:ed:4f:13:ca:78:d6:08:e6:7b:4d:bc:
                    7b:fc:d7:60:be:18:b7:d9:2c:fb:29:4b:68:dd:b7:
                    d5:f7:40:ae:86:90:50:8f:ff:96:97:ff:f1:67:bd:
                    ce:15:7f:36:00:11:3e:fa:b5:5f:82:46:86:71:e6:
                    e4:b3:59:70:11:1a:3d:2c:8d:07:42:35:c2:f4:59:
                    f2:e7:13:52:f1:d9:29:62:c2:d7:7c:5e:60:be:72:
                    80:74:e4:64:52:f1:9d:59:45:8c:46:3b:24:41:06:
                    33:8a:cc:23:cc:e1:f1:9c:ae:e2:e4:37:8d:80:7a:
                    ef:d5:b7:cc:9f:9a:56:6c:b9:b9:7a:88:79:05:ad:
                    a5:ab:1e:86:77:59:67:13:7d:d9:ef:3a:c0:b8:d4:
                    a4:36:a6:84:31:5b:26:5b:ab:58:8f:6b:ca:dc:6b:
                    e9:f3:70:a0:a8:ce:ba:0f:56:ff:07:69:ad:c6:4c:
                    71:36:29:bf:78:a1:05:d3:c0:9f:98:c4:77:c2:c6:
                    8c:b8:ae:10:fe:b5:dd:ed:f0:32:5c:eb:2e:38:33:
                    fe:fa:bf:3b:c5:ca:c2:ca:ba:1a:ba:44:fa:f4:14:
                    e5:4e:57:00:b5:ee:9d:c7:9e:fd:d3:94:f7:1f:9d:
                    1a:83:8d:ce:e7:1e:db:bb:3d:80:46:d3:26:8c:5c:
                    98:01:60:76:21:bc:df:78:41:13:25:9b:fe:7b:70:
                    86:66:4c:ab:e6:81:91:70:b3:cc:b9:20:d9:25:dd:
                    2c:8b:27:08:0d:d1:05:ad:44:56:f1:5e:0f:bd:51:
                    1a:82:f9
                Exponent: 65537 (0x10001)
        X509v3 extensions:
            X509v3 Key Usage: critical
                Digital Signature, Key Encipherment
            X509v3 Basic Constraints: 
                CA:FALSE
            X509v3 Extended Key Usage: 
                TLS Web Server Authentication, TLS Web Client Authentication
            X509v3 Subject Key Identifier: 
                CA:18:7B:3C:CA:43:98:5D:D9:6F:0C:D7:3F:66:96:60:1C:DC:C3:EF
            X509v3 Authority Key Identifier: 
                keyid:AB:ED:25:FE:54:00:34:9F:1D:AB:8F:4F:89:06:B2:48:6F:04:6D:67

            Authority Information Access: 
                CA Issuers - URI:http//tim2.xws/ca/tls-ca.cer

            X509v3 CRL Distribution Points: 

                Full Name:
                  URI:http//tim2.xws/ca/tls-ca.crl

            X509v3 Subject Alternative Name: 
                DNS:tim2.xws, DNS:host.docker.internal, DNS:localhost, DNS:eureka, IP Address:172.20.0.0, IP Address:26.206.31.193, IP Address:10.0.2.15, IP Address:192.168.1.7, IP Address:192.168.99.1, IP Address:127.0.0.1
    Signature Algorithm: sha256WithRSAEncryption
         a5:25:4a:ee:7c:0e:48:ba:c6:d6:ef:cb:9b:98:32:84:cb:6a:
         6b:1a:e7:01:e5:21:59:7a:4c:b5:80:84:3a:8f:75:2c:ba:48:
         2a:7b:c7:5e:f8:d4:28:f3:93:ad:25:25:bf:86:d2:24:f2:47:
         9c:9c:58:23:75:2a:5b:36:5c:e0:ba:ae:59:b5:ee:5b:df:a9:
         1e:f9:da:f2:84:f6:9d:21:c0:09:c3:eb:a7:23:dd:aa:de:d8:
         5e:1f:79:f5:27:aa:4b:da:74:66:46:47:16:ff:b7:2a:b4:8d:
         54:eb:5e:6c:ea:75:de:3f:5d:76:b7:76:a5:32:05:44:4d:68:
         5d:e5:20:c5:ac:c0:3c:98:6d:c3:88:d4:27:f3:75:51:a2:d4:
         f6:55:3d:88:88:5e:f0:d9:da:ea:30:0c:87:10:87:df:58:d8:
         d4:bb:0a:71:fe:01:95:68:57:e4:84:8a:60:ca:b9:53:2d:37:
         3f:c5:01:15:4a:17:2c:9f:3d:de:a5:8b:01:fb:c4:3a:e1:04:
         7a:51:fc:f7:28:aa:dc:02:57:bf:0a:5b:8e:c5:39:f9:39:81:
         7e:f0:cb:83:f5:4d:cf:df:a6:65:00:39:07:e7:f0:02:6b:58:
         00:9c:9d:04:b1:56:3f:ed:e3:1c:8b:b4:8c:7f:92:ee:9c:c3:
         8d:4f:66:48:c3:b1:16:51:89:f7:0b:ab:17:7c:1e:41:fd:d1:
         86:50:93:be:9d:ac:05:85:cb:50:5f:57:c7:0c:5b:17:2a:f3:
         5e:f8:a8:2d:3e:6b:f2:70:59:03:0f:3e:ed:46:e6:3e:da:eb:
         74:99:5b:fd:35:73:4e:ee:d3:35:77:0a:17:a6:db:9c:ab:0b:
         c1:69:f4:8b:fd:a0:7a:41:f3:8c:9c:b5:d0:ef:9e:71:d3:13:
         8c:fd:72:21:43:27:34:eb:b1:5c:f7:49:21:8f:99:ce:05:58:
         24:bd:05:fc:fa:a1:0b:d1:39:50:37:f8:ce:6d:f9:c1:8d:0b:
         41:cd:e0:a4:55:14:b0:b1:dc:82:07:4e:45:bb:15:e0:2a:27:
         bc:f2:db:03:70:5e:9c:69:58:ea:67:c6:9c:0e:e6:2f:04:f4:
         02:04:5e:0e:e0:f4:22:8f:f5:35:11:9f:74:02:3a:2e:e6:c1:
         16:22:c5:03:bd:19:8c:61:11:e3:63:15:4b:0f:e6:1c:45:6a:
         72:70:29:39:3c:bb:0a:73:9e:29:f3:56:6f:f9:ac:db:f0:29:
         7f:55:25:81:c6:b6:c2:38:00:0c:2d:44:e1:52:b9:14:8b:4f:
         d1:d6:b0:45:59:74:e3:3f:c0:c8:12:6d:0e:aa:ba:27:59:75:
         ae:5d:36:37:b2:d5:98:01
-----BEGIN CERTIFICATE-----
MIIGQDCCBCigAwIBAgIBAzANBgkqhkiG9w0BAQsFADA+MQswCQYDVQQGEwJOTzEN
MAsGA1UECgwEQlNFUDEOMAwGA1UECwwFVGltIDIxEDAOBgNVBAMMB1RpbTIgQ0Ew
HhcNMjAwNjIwMTI0ODAyWhcNMjIwNjIwMTI0ODAyWjA8MQswCQYDVQQGEwJOTzEN
MAsGA1UECgwEQlNFUDEOMAwGA1UECwwFVGltIDIxDjAMBgNVBAMMBWxvZ2FuMIIC
IjANBgkqhkiG9w0BAQEFAAOCAg8AMIICCgKCAgEAxYANOh6o1Gpu5hb26a9FkVD1
f8IGDiWaMAtEwbkxgO/k3rLsSdz/5InMbttIVvBzc5CAp1xmL1taDPh/yjZbwz3j
qf8qxngrB3g1CMU1baoOuXVepteLW65CizWMPaYOq9/K33Ejsu4Xdsv//mS1h2ZO
bKOZiX4DyWi66Xs9Wo1VQqyaTROfsHFhLDYoQsr3UqmxqEZ/9ZmaPt2Rpgqz5kuN
Hv5S0LN/Lx16y+WwrrxBYxbdSokDBrD1yJIa07cKL0aioF8kcusPvP3LTrwCIX2O
J97/7U8TynjWCOZ7Tbx7/Ndgvhi32Sz7KUto3bfV90CuhpBQj/+Wl//xZ73OFX82
ABE++rVfgkaGcebks1lwERo9LI0HQjXC9Fny5xNS8dkpYsLXfF5gvnKAdORkUvGd
WUWMRjskQQYziswjzOHxnK7i5DeNgHrv1bfMn5pWbLm5eoh5Ba2lqx6Gd1lnE33Z
7zrAuNSkNqaEMVsmW6tYj2vK3Gvp83CgqM66D1b/B2mtxkxxNim/eKEF08CfmMR3
wsaMuK4Q/rXd7fAyXOsuODP++r87xcrCyroaukT69BTlTlcAte6dx57905T3H50a
g43O5x7buz2ARtMmjFyYAWB2IbzfeEETJZv+e3CGZkyr5oGRcLPMuSDZJd0siycI
DdEFrURW8V4PvVEagvkCAwEAAaOCAUkwggFFMA4GA1UdDwEB/wQEAwIFoDAJBgNV
HRMEAjAAMB0GA1UdJQQWMBQGCCsGAQUFBwMBBggrBgEFBQcDAjAdBgNVHQ4EFgQU
yhh7PMpDmF3ZbwzXP2aWYBzcw+8wHwYDVR0jBBgwFoAUq+0l/lQANJ8dq49PiQay
SG8EbWcwOAYIKwYBBQUHAQEELDAqMCgGCCsGAQUFBzAChhxodHRwLy90aW0yLnh3
cy9jYS90bHMtY2EuY2VyMC0GA1UdHwQmMCQwIqAgoB6GHGh0dHAvL3RpbTIueHdz
L2NhL3Rscy1jYS5jcmwwYAYDVR0RBFkwV4IIdGltMi54d3OCFGhvc3QuZG9ja2Vy
LmludGVybmFsgglsb2NhbGhvc3SCBmV1cmVrYYcErBQAAIcEGs4fwYcECgACD4cE
wKgBB4cEwKhjAYcEfwAAATANBgkqhkiG9w0BAQsFAAOCAgEApSVK7nwOSLrG1u/L
m5gyhMtqaxrnAeUhWXpMtYCEOo91LLpIKnvHXvjUKPOTrSUlv4bSJPJHnJxYI3Uq
WzZc4LquWbXuW9+pHvna8oT2nSHACcPrpyPdqt7YXh959SeqS9p0ZkZHFv+3KrSN
VOtebOp13j9ddrd2pTIFRE1oXeUgxazAPJhtw4jUJ/N1UaLU9lU9iIhe8Nna6jAM
hxCH31jY1LsKcf4BlWhX5ISKYMq5Uy03P8UBFUoXLJ893qWLAfvEOuEEelH89yiq
3AJXvwpbjsU5+TmBfvDLg/VNz9+mZQA5B+fwAmtYAJydBLFWP+3jHIu0jH+S7pzD
jU9mSMOxFlGJ9wurF3weQf3RhlCTvp2sBYXLUF9XxwxbFyrzXvioLT5r8nBZAw8+
7UbmPtrrdJlb/TVzTu7TNXcKF6bbnKsLwWn0i/2gekHzjJy10O+ecdMTjP1yIUMn
NOuxXPdJIY+ZzgVYJL0F/PqhC9E5UDf4zm35wY0LQc3gpFUUsLHcggdORbsV4Con
vPLbA3BenGlY6mfGnA7mLwT0AgReDuD0Io/1NRGfdAI6LubBFiLFA70ZjGER42MV
Sw/mHEVqcnApOTy7CnOeKfNWb/ms2/Apf1Ulgca2wjgADC1E4VK5FItP0dawRVl0
4z/AyBJtDqq6J1l1rl02N7LVmAE=
-----END CERTIFICATE-----
