Certificate:
    Data:
        Version: 3 (0x2)
        Serial Number: 8 (0x8)
    Signature Algorithm: sha256WithRSAEncryption
        Issuer: C=NO, O=BSEP, OU=Tim 2, CN=Tim2 CA
        Validity
            Not Before: Jun 26 09:26:14 2020 GMT
            Not After : Jun 26 09:26:14 2022 GMT
        Subject: C=NO, O=BSEP, OU=Tim 2, CN=message
        Subject Public Key Info:
            Public Key Algorithm: rsaEncryption
                Public-Key: (4096 bit)
                Modulus:
                    00:b0:6e:40:a6:d7:29:5b:51:dc:45:26:29:be:74:
                    3e:97:1d:b5:08:3f:3d:bb:0b:8c:26:bd:5b:6a:1d:
                    42:c9:9f:b5:c2:97:8c:24:b3:f4:13:18:b1:b8:08:
                    38:34:58:b5:0f:19:a9:e1:a9:9a:a1:ca:c5:d8:77:
                    e7:31:25:e2:56:18:db:32:53:bd:d4:d9:81:d5:bf:
                    2d:ac:c6:0f:36:bf:ac:01:e7:17:cd:27:4b:2c:5c:
                    fc:fe:c0:9c:40:7f:e0:a5:a1:02:80:d6:04:c0:65:
                    0a:bf:11:34:44:11:f2:7d:c0:df:16:9b:96:02:fe:
                    90:80:b9:21:18:7a:b2:ac:a6:86:8c:b6:47:64:a2:
                    7a:9c:c2:3f:b7:a0:78:66:f8:8e:38:2a:1e:8c:af:
                    a2:dd:c9:9c:2e:dd:34:a8:42:4b:75:1d:e4:d1:86:
                    77:fe:59:22:c1:16:d4:04:9b:65:97:9f:60:76:0e:
                    8f:b2:7c:1c:93:4f:e0:bd:e2:5b:86:35:01:34:9b:
                    f9:3c:62:bc:4e:7a:74:01:f6:1a:df:d0:df:51:f8:
                    21:b3:4b:fc:bb:55:10:4d:ed:d6:69:f0:78:c9:96:
                    7e:b3:95:a7:6f:4d:be:93:f6:5d:06:e2:61:c2:6c:
                    e5:be:1b:ca:26:c4:8c:3e:17:28:9e:e6:69:d8:d6:
                    8a:34:4e:77:ba:03:e6:19:54:78:62:66:83:ea:7f:
                    99:f6:27:6f:ef:d5:00:25:b7:fa:af:56:dc:3a:f9:
                    d5:21:13:4d:c8:0e:14:5e:52:a0:39:78:53:b5:d3:
                    9f:ca:c9:ea:10:43:af:d2:ea:c6:76:1c:c2:36:58:
                    a7:b8:74:5f:54:a2:9a:b9:0e:04:1b:8f:a2:3d:f7:
                    6c:11:60:4d:1f:4c:05:8b:b2:9d:15:c3:cf:d1:2c:
                    77:26:3e:f2:08:a1:f0:e2:cd:db:09:2b:3a:bb:78:
                    70:e2:ce:2b:3a:bc:8e:40:6f:7f:d6:ce:15:bc:d4:
                    b3:98:9d:39:22:26:3d:87:87:22:ee:23:2c:97:ca:
                    91:ab:20:78:e2:30:90:e9:f1:ff:39:d9:9e:5f:56:
                    97:99:19:a8:69:17:31:8c:7a:bb:32:c7:22:a3:5c:
                    09:54:85:30:19:29:44:4f:5f:14:ec:9f:de:97:af:
                    80:76:40:30:05:d0:11:4d:9d:32:ec:10:7b:dd:fc:
                    27:1e:6e:2b:76:6b:df:23:fd:9a:5c:d5:7c:b4:13:
                    69:12:a8:cc:b1:77:a5:4d:9d:91:81:a5:42:21:60:
                    0c:ea:ae:42:58:4d:be:1c:61:84:6e:55:50:28:16:
                    7b:60:b5:97:9e:6b:18:b4:fc:cd:43:f3:79:d4:cb:
                    8f:f7:6b
                Exponent: 65537 (0x10001)
        X509v3 extensions:
            X509v3 Key Usage: critical
                Digital Signature, Key Encipherment
            X509v3 Basic Constraints: 
                CA:FALSE
            X509v3 Extended Key Usage: 
                TLS Web Server Authentication, TLS Web Client Authentication
            X509v3 Subject Key Identifier: 
                84:26:7E:4B:2A:75:AA:89:A8:6C:9B:66:04:BB:CD:80:52:24:40:B5
            X509v3 Authority Key Identifier: 
                keyid:A3:9D:5A:C1:DA:0D:64:9E:55:C0:B0:1A:51:4C:0D:D9:71:3C:E3:96

            Authority Information Access: 
                CA Issuers - URI:http//tim2.xws/ca/tls-ca.cer

            X509v3 CRL Distribution Points: 

                Full Name:
                  URI:http//tim2.xws/ca/tls-ca.crl

            X509v3 Subject Alternative Name: 
                DNS:tim2.xws, DNS:host.docker.internal, DNS:localhost, DNS:eureka, IP Address:172.20.0.0, IP Address:26.206.31.193, IP Address:10.0.2.15, IP Address:192.168.1.7, IP Address:192.168.99.1, IP Address:127.0.0.1
    Signature Algorithm: sha256WithRSAEncryption
         be:8b:28:2e:63:c7:dc:cd:dc:ac:13:88:46:cd:72:88:5d:36:
         77:28:6b:30:0c:fc:4a:01:ab:64:ea:5e:22:04:5a:e6:67:7c:
         86:b4:27:38:92:dd:4b:56:cb:3b:04:05:e4:e9:98:4f:03:d9:
         b7:a6:7a:2d:d5:8f:33:33:a5:20:60:46:98:7e:12:12:6f:4b:
         90:7d:fe:85:4f:08:30:2a:35:8d:bd:44:f0:64:31:2d:fb:8a:
         da:82:47:3c:96:fe:00:55:4f:57:21:41:8f:16:c5:b9:e0:de:
         71:4a:31:91:6b:c5:8f:21:1a:03:44:fd:12:4b:b9:24:fe:6d:
         f8:4a:8e:f3:7f:df:68:df:c1:72:10:47:f3:41:2f:d5:9f:77:
         4a:98:7c:0d:8e:10:8a:cd:0e:31:ca:02:eb:27:24:4e:86:65:
         32:80:97:32:a4:ef:89:c1:41:d2:ea:c9:15:85:bb:09:37:a3:
         24:91:4e:9a:5d:5c:d5:99:e9:62:85:ca:49:ef:9a:b5:e3:d2:
         a1:b1:1b:ce:ec:2d:b3:a9:60:c2:8f:cc:3c:86:33:d2:36:28:
         f9:13:96:2e:7a:10:44:6a:3b:b8:92:8d:68:c3:8c:e2:06:67:
         4c:d9:09:63:f1:74:09:57:5e:07:70:a5:ab:52:26:6b:d2:15:
         e1:f7:47:56:29:1d:9f:4b:3e:8b:30:de:ed:d3:cf:43:78:4a:
         f0:48:b5:df:f6:c4:6d:52:74:22:6f:22:7e:d7:fe:37:75:7b:
         7a:1f:09:fb:c3:ac:ef:98:99:5d:6e:bb:4c:34:ec:82:eb:b4:
         17:cd:b3:70:0b:c6:8b:8c:81:28:35:d9:d4:14:18:7d:56:7a:
         05:6c:48:0d:4a:5c:84:e8:65:de:68:79:82:38:a7:84:8b:eb:
         f4:4a:2d:4e:06:70:2a:a8:7f:11:bd:17:a3:b7:40:79:d2:b2:
         aa:22:0d:76:eb:3e:45:7a:6c:d0:8b:07:2b:0e:f7:b8:ce:bb:
         6b:6f:d2:29:31:2e:9f:92:04:5b:ef:38:fb:4f:ff:cf:52:d2:
         1a:10:ff:9f:97:94:ba:f1:8a:e4:40:ab:82:09:87:e7:43:f0:
         ce:5d:85:40:cc:76:8c:a8:43:ca:9a:17:b8:2c:5c:e6:ab:41:
         ee:37:8c:ec:3f:f8:9b:58:63:17:86:d6:76:51:99:48:59:49:
         68:39:13:c1:da:d8:08:20:75:ff:04:2c:b7:d5:cc:ec:68:b8:
         99:ee:52:dc:06:b4:cc:93:84:dc:b0:7b:ca:33:59:fb:34:f7:
         a5:b9:62:4b:a7:0d:27:74:78:2e:7f:ec:5c:b9:01:6e:5b:7d:
         fe:98:12:e7:50:66:be:1f
-----BEGIN CERTIFICATE-----
MIIGQjCCBCqgAwIBAgIBCDANBgkqhkiG9w0BAQsFADA+MQswCQYDVQQGEwJOTzEN
MAsGA1UECgwEQlNFUDEOMAwGA1UECwwFVGltIDIxEDAOBgNVBAMMB1RpbTIgQ0Ew
HhcNMjAwNjI2MDkyNjE0WhcNMjIwNjI2MDkyNjE0WjA+MQswCQYDVQQGEwJOTzEN
MAsGA1UECgwEQlNFUDEOMAwGA1UECwwFVGltIDIxEDAOBgNVBAMMB21lc3NhZ2Uw
ggIiMA0GCSqGSIb3DQEBAQUAA4ICDwAwggIKAoICAQCwbkCm1ylbUdxFJim+dD6X
HbUIPz27C4wmvVtqHULJn7XCl4wks/QTGLG4CDg0WLUPGanhqZqhysXYd+cxJeJW
GNsyU73U2YHVvy2sxg82v6wB5xfNJ0ssXPz+wJxAf+CloQKA1gTAZQq/ETREEfJ9
wN8Wm5YC/pCAuSEYerKspoaMtkdkonqcwj+3oHhm+I44Kh6Mr6LdyZwu3TSoQkt1
HeTRhnf+WSLBFtQEm2WXn2B2Do+yfByTT+C94luGNQE0m/k8YrxOenQB9hrf0N9R
+CGzS/y7VRBN7dZp8HjJln6zladvTb6T9l0G4mHCbOW+G8omxIw+Fyie5mnY1oo0
Tne6A+YZVHhiZoPqf5n2J2/v1QAlt/qvVtw6+dUhE03IDhReUqA5eFO105/KyeoQ
Q6/S6sZ2HMI2WKe4dF9Uopq5DgQbj6I992wRYE0fTAWLsp0Vw8/RLHcmPvIIofDi
zdsJKzq7eHDizis6vI5Ab3/WzhW81LOYnTkiJj2HhyLuIyyXypGrIHjiMJDp8f85
2Z5fVpeZGahpFzGMersyxyKjXAlUhTAZKURPXxTsn96Xr4B2QDAF0BFNnTLsEHvd
/Ccebit2a98j/Zpc1Xy0E2kSqMyxd6VNnZGBpUIhYAzqrkJYTb4cYYRuVVAoFntg
tZeeaxi0/M1D83nUy4/3awIDAQABo4IBSTCCAUUwDgYDVR0PAQH/BAQDAgWgMAkG
A1UdEwQCMAAwHQYDVR0lBBYwFAYIKwYBBQUHAwEGCCsGAQUFBwMCMB0GA1UdDgQW
BBSEJn5LKnWqiahsm2YEu82AUiRAtTAfBgNVHSMEGDAWgBSjnVrB2g1knlXAsBpR
TA3ZcTzjljA4BggrBgEFBQcBAQQsMCowKAYIKwYBBQUHMAKGHGh0dHAvL3RpbTIu
eHdzL2NhL3Rscy1jYS5jZXIwLQYDVR0fBCYwJDAioCCgHoYcaHR0cC8vdGltMi54
d3MvY2EvdGxzLWNhLmNybDBgBgNVHREEWTBXggh0aW0yLnh3c4IUaG9zdC5kb2Nr
ZXIuaW50ZXJuYWyCCWxvY2FsaG9zdIIGZXVyZWthhwSsFAAAhwQazh/BhwQKAAIP
hwTAqAEHhwTAqGMBhwR/AAABMA0GCSqGSIb3DQEBCwUAA4ICAQC+iyguY8fczdys
E4hGzXKIXTZ3KGswDPxKAatk6l4iBFrmZ3yGtCc4kt1LVss7BAXk6ZhPA9m3pnot
1Y8zM6UgYEaYfhISb0uQff6FTwgwKjWNvUTwZDEt+4ragkc8lv4AVU9XIUGPFsW5
4N5xSjGRa8WPIRoDRP0SS7kk/m34So7zf99o38FyEEfzQS/Vn3dKmHwNjhCKzQ4x
ygLrJyROhmUygJcypO+JwUHS6skVhbsJN6MkkU6aXVzVmelihcpJ75q149KhsRvO
7C2zqWDCj8w8hjPSNij5E5YuehBEaju4ko1ow4ziBmdM2Qlj8XQJV14HcKWrUiZr
0hXh90dWKR2fSz6LMN7t089DeErwSLXf9sRtUnQibyJ+1/43dXt6Hwn7w6zvmJld
brtMNOyC67QXzbNwC8aLjIEoNdnUFBh9VnoFbEgNSlyE6GXeaHmCOKeEi+v0Si1O
BnAqqH8RvRejt0B50rKqIg126z5FemzQiwcrDve4zrtrb9IpMS6fkgRb7zj7T//P
UtIaEP+fl5S68YrkQKuCCYfnQ/DOXYVAzHaMqEPKmhe4LFzmq0HuN4zsP/ibWGMX
htZ2UZlIWUloORPB2tgIIHX/BCy31czsaLiZ7lLcBrTMk4TcsHvKM1n7NPeluWJL
pw0ndHguf+xcuQFuW33+mBLnUGa+Hw==
-----END CERTIFICATE-----
