Certificate:
    Data:
        Version: 3 (0x2)
        Serial Number: 6 (0x6)
    Signature Algorithm: sha256WithRSAEncryption
        Issuer: C=NO, O=BSEP, OU=Tim 2, CN=Tim2 CA
        Validity
            Not Before: Jun 20 12:48:04 2020 GMT
            Not After : Jun 20 12:48:04 2022 GMT
        Subject: C=NO, O=BSEP, OU=Tim 2, CN=order
        Subject Public Key Info:
            Public Key Algorithm: rsaEncryption
                Public-Key: (4096 bit)
                Modulus:
                    00:cc:ff:30:b8:f6:a5:3d:14:a0:39:6b:47:59:88:
                    0d:23:d0:3f:93:70:46:84:f8:a1:a1:54:28:7d:50:
                    6c:d9:ca:b0:5c:34:60:42:4b:ea:20:27:d6:53:1b:
                    41:92:2a:c7:8a:74:a7:b7:15:13:59:91:cb:5b:84:
                    91:c1:ec:35:32:d4:50:b0:92:27:1b:9b:09:38:c5:
                    7a:9c:56:16:88:41:34:19:35:6b:b5:b4:27:ff:2c:
                    2a:6a:51:8e:c7:5b:85:c9:ae:72:e5:c2:5d:92:f1:
                    a2:7d:db:69:03:7e:b9:80:30:9a:07:b4:ce:d6:d6:
                    6b:73:5f:e8:b3:58:eb:42:1e:0a:9b:79:d6:21:e7:
                    86:68:3d:b8:8c:68:0c:5e:74:53:e9:f0:23:b9:a2:
                    72:a1:ea:dd:62:67:79:d1:fc:26:a5:3a:84:f9:56:
                    d1:55:ff:46:23:fb:13:bc:86:c9:84:54:e5:1e:cf:
                    42:ec:62:4a:f0:d2:a4:8e:c8:6d:a3:a3:56:ce:ab:
                    1c:5e:d4:df:a1:1b:92:2b:4e:b2:ca:38:92:8d:91:
                    8e:9a:bc:0a:3a:26:b9:e6:ae:a2:19:9a:59:73:a7:
                    c5:c3:ce:b9:f0:fa:70:25:35:f1:d9:c3:04:36:7b:
                    58:99:cc:74:06:c5:a3:d0:3a:87:6d:a2:c2:66:ae:
                    77:d6:1e:b0:7e:5e:f6:8c:b9:59:3e:54:d2:06:f4:
                    03:0d:67:68:a9:d2:8a:e1:ef:9f:b6:eb:01:70:5a:
                    85:2b:26:61:02:6b:bd:28:a3:29:3e:9d:2e:3f:c7:
                    07:98:b4:ef:2b:8c:c3:91:28:eb:e6:1b:e4:8e:e3:
                    05:be:e0:b8:fd:48:33:3a:de:df:af:ab:42:41:a8:
                    36:f1:ed:90:f2:8b:fd:65:e0:f8:51:f2:3d:08:e6:
                    6f:5b:a6:aa:ae:8e:86:79:13:d7:dc:86:70:24:39:
                    e7:63:ea:f9:68:14:43:4c:98:37:70:3a:20:1a:7f:
                    12:5a:3e:3b:fb:a3:d9:e4:fc:74:12:c8:2a:b8:33:
                    b3:ae:ab:6e:8e:a0:13:f4:b4:69:ae:a6:9d:cc:80:
                    c1:0e:d4:ff:5f:a4:94:00:42:77:0c:bc:dc:be:86:
                    f6:cf:1f:a5:07:ff:73:0a:81:b5:01:56:2b:64:67:
                    cb:c7:20:8f:8d:8e:49:92:99:2b:f1:9a:6c:f6:1b:
                    8f:c8:94:2b:48:07:10:c4:21:06:98:7c:08:de:38:
                    fb:ef:91:95:46:48:95:7b:53:1a:a9:a9:9b:4d:a7:
                    f9:e7:a9:5d:06:db:64:fc:16:82:ce:4e:6b:f8:d8:
                    e9:fa:35:75:30:1d:51:4c:0f:8b:96:ae:09:69:33:
                    11:ee:bb
                Exponent: 65537 (0x10001)
        X509v3 extensions:
            X509v3 Key Usage: critical
                Digital Signature, Key Encipherment
            X509v3 Basic Constraints: 
                CA:FALSE
            X509v3 Extended Key Usage: 
                TLS Web Server Authentication, TLS Web Client Authentication
            X509v3 Subject Key Identifier: 
                9D:32:9C:78:ED:61:0B:5F:90:D2:7C:3C:EE:03:07:22:6E:1A:4F:04
            X509v3 Authority Key Identifier: 
                keyid:AB:ED:25:FE:54:00:34:9F:1D:AB:8F:4F:89:06:B2:48:6F:04:6D:67

            Authority Information Access: 
                CA Issuers - URI:http//tim2.xws/ca/tls-ca.cer

            X509v3 CRL Distribution Points: 

                Full Name:
                  URI:http//tim2.xws/ca/tls-ca.crl

            X509v3 Subject Alternative Name: 
                DNS:tim2.xws, DNS:host.docker.internal, DNS:localhost, DNS:eureka, IP Address:172.20.0.0, IP Address:26.206.31.193, IP Address:10.0.2.15, IP Address:192.168.1.7, IP Address:192.168.99.1, IP Address:127.0.0.1
    Signature Algorithm: sha256WithRSAEncryption
         82:61:50:99:a8:56:f7:27:cf:2c:e7:0d:c5:50:1e:f5:28:c4:
         53:91:5f:42:fd:1d:2d:53:64:ae:15:ad:0d:18:23:59:c0:b6:
         c4:23:89:11:8c:78:b8:30:a9:1e:ba:7f:55:fa:33:3f:25:d4:
         4e:3d:88:4b:a2:ed:d9:8f:8a:1c:e3:10:49:52:73:da:16:a3:
         a4:57:33:4a:f5:8f:36:7f:8b:fd:6e:bd:21:a4:68:14:f8:10:
         79:e4:35:ba:74:de:1d:d2:d9:7b:bb:ec:9d:5a:fd:f7:48:8f:
         bd:75:6c:ea:61:68:22:fa:e5:4d:64:31:22:d9:d3:84:5a:19:
         07:5c:07:95:2a:e5:26:b6:62:06:43:0e:81:47:03:aa:92:89:
         8e:02:86:e5:78:79:b5:4b:cb:0c:3c:10:49:58:c2:56:13:a5:
         42:ec:13:c7:44:99:52:10:3e:3d:11:cc:66:bd:08:2d:06:b4:
         c2:1c:27:f3:ec:d1:76:7b:87:57:fb:48:42:a1:24:cb:04:f9:
         08:65:03:4a:14:fd:d1:e8:ce:62:67:dc:d5:91:d2:9a:57:57:
         2e:5b:40:c3:9d:f9:b8:d5:dd:2a:01:1d:06:ad:80:af:06:96:
         8b:5a:bd:fa:13:d2:13:94:0e:5f:ef:78:0e:b8:f9:0a:8d:28:
         10:50:7e:85:d8:7d:04:7b:dc:a0:54:e3:25:0f:ec:f3:b6:b9:
         ff:cb:32:8a:20:04:47:b2:98:b4:1e:ba:d8:e2:e7:8c:82:87:
         6d:2b:c0:8e:78:12:50:08:87:ba:96:cc:84:81:f8:c4:91:d4:
         d9:b5:9a:81:ed:58:38:fe:78:60:10:ff:13:a1:31:91:f8:d4:
         bf:c8:6b:53:6f:e6:ed:17:66:65:35:c4:ca:de:48:7e:33:0d:
         24:c5:27:1e:21:b2:85:97:49:c0:dd:b5:af:3d:fb:fc:d4:47:
         29:96:fe:08:f9:9e:76:bd:c9:b0:74:75:38:b7:c3:37:ba:ed:
         99:95:70:fd:30:4b:3e:10:c6:47:4c:cb:4a:c8:96:46:31:55:
         a6:1f:f9:2b:7b:20:67:83:bf:42:46:89:29:7a:9c:b8:82:f3:
         4b:6d:b3:8a:fe:a0:53:40:c2:d1:06:26:1c:d4:71:96:64:38:
         6e:56:c5:2a:cd:af:8e:f6:fd:a7:ad:c0:48:e7:df:ca:6a:4b:
         5d:3d:dc:2f:f6:e8:15:01:fb:95:bf:e7:27:99:08:90:ed:72:
         78:20:3b:8a:61:77:71:22:26:8a:c3:a1:cd:72:88:49:a4:52:
         48:80:c4:ba:2b:68:56:ba:19:1a:bf:bd:e9:f9:cc:ab:db:19:
         84:3e:a1:ca:16:84:4f:5a
-----BEGIN CERTIFICATE-----
MIIGQDCCBCigAwIBAgIBBjANBgkqhkiG9w0BAQsFADA+MQswCQYDVQQGEwJOTzEN
MAsGA1UECgwEQlNFUDEOMAwGA1UECwwFVGltIDIxEDAOBgNVBAMMB1RpbTIgQ0Ew
HhcNMjAwNjIwMTI0ODA0WhcNMjIwNjIwMTI0ODA0WjA8MQswCQYDVQQGEwJOTzEN
MAsGA1UECgwEQlNFUDEOMAwGA1UECwwFVGltIDIxDjAMBgNVBAMMBW9yZGVyMIIC
IjANBgkqhkiG9w0BAQEFAAOCAg8AMIICCgKCAgEAzP8wuPalPRSgOWtHWYgNI9A/
k3BGhPihoVQofVBs2cqwXDRgQkvqICfWUxtBkirHinSntxUTWZHLW4SRwew1MtRQ
sJInG5sJOMV6nFYWiEE0GTVrtbQn/ywqalGOx1uFya5y5cJdkvGifdtpA365gDCa
B7TO1tZrc1/os1jrQh4Km3nWIeeGaD24jGgMXnRT6fAjuaJyoerdYmd50fwmpTqE
+VbRVf9GI/sTvIbJhFTlHs9C7GJK8NKkjshto6NWzqscXtTfoRuSK06yyjiSjZGO
mrwKOia55q6iGZpZc6fFw8658PpwJTXx2cMENntYmcx0BsWj0DqHbaLCZq531h6w
fl72jLlZPlTSBvQDDWdoqdKK4e+ftusBcFqFKyZhAmu9KKMpPp0uP8cHmLTvK4zD
kSjr5hvkjuMFvuC4/UgzOt7fr6tCQag28e2Q8ov9ZeD4UfI9COZvW6aqro6GeRPX
3IZwJDnnY+r5aBRDTJg3cDogGn8SWj47+6PZ5Px0EsgquDOzrqtujqAT9LRprqad
zIDBDtT/X6SUAEJ3DLzcvob2zx+lB/9zCoG1AVYrZGfLxyCPjY5Jkpkr8Zps9huP
yJQrSAcQxCEGmHwI3jj775GVRkiVe1MaqambTaf556ldBttk/BaCzk5r+Njp+jV1
MB1RTA+Llq4JaTMR7rsCAwEAAaOCAUkwggFFMA4GA1UdDwEB/wQEAwIFoDAJBgNV
HRMEAjAAMB0GA1UdJQQWMBQGCCsGAQUFBwMBBggrBgEFBQcDAjAdBgNVHQ4EFgQU
nTKceO1hC1+Q0nw87gMHIm4aTwQwHwYDVR0jBBgwFoAUq+0l/lQANJ8dq49PiQay
SG8EbWcwOAYIKwYBBQUHAQEELDAqMCgGCCsGAQUFBzAChhxodHRwLy90aW0yLnh3
cy9jYS90bHMtY2EuY2VyMC0GA1UdHwQmMCQwIqAgoB6GHGh0dHAvL3RpbTIueHdz
L2NhL3Rscy1jYS5jcmwwYAYDVR0RBFkwV4IIdGltMi54d3OCFGhvc3QuZG9ja2Vy
LmludGVybmFsgglsb2NhbGhvc3SCBmV1cmVrYYcErBQAAIcEGs4fwYcECgACD4cE
wKgBB4cEwKhjAYcEfwAAATANBgkqhkiG9w0BAQsFAAOCAgEAgmFQmahW9yfPLOcN
xVAe9SjEU5FfQv0dLVNkrhWtDRgjWcC2xCOJEYx4uDCpHrp/VfozPyXUTj2IS6Lt
2Y+KHOMQSVJz2hajpFczSvWPNn+L/W69IaRoFPgQeeQ1unTeHdLZe7vsnVr990iP
vXVs6mFoIvrlTWQxItnThFoZB1wHlSrlJrZiBkMOgUcDqpKJjgKG5Xh5tUvLDDwQ
SVjCVhOlQuwTx0SZUhA+PRHMZr0ILQa0whwn8+zRdnuHV/tIQqEkywT5CGUDShT9
0ejOYmfc1ZHSmldXLltAw535uNXdKgEdBq2ArwaWi1q9+hPSE5QOX+94Drj5Co0o
EFB+hdh9BHvcoFTjJQ/s87a5/8syiiAER7KYtB662OLnjIKHbSvAjngSUAiHupbM
hIH4xJHU2bWage1YOP54YBD/E6ExkfjUv8hrU2/m7RdmZTXEyt5IfjMNJMUnHiGy
hZdJwN21rz37/NRHKZb+CPmedr3JsHR1OLfDN7rtmZVw/TBLPhDGR0zLSsiWRjFV
ph/5K3sgZ4O/QkaJKXqcuILzS22ziv6gU0DC0QYmHNRxlmQ4blbFKs2vjvb9p63A
SOffympLXT3cL/boFQH7lb/nJ5kIkO1yeCA7imF3cSImisOhzXKISaRSSIDEuito
VroZGr+96fnMq9sZhD6hyhaET1o=
-----END CERTIFICATE-----
