Certificate:
    Data:
        Version: 3 (0x2)
        Serial Number: 7 (0x7)
    Signature Algorithm: sha256WithRSAEncryption
        Issuer: C=NO, O=BSEP, OU=Tim 2, CN=Tim2 CA
        Validity
            Not Before: Jun 26 09:26:14 2020 GMT
            Not After : Jun 26 09:26:14 2022 GMT
        Subject: C=NO, O=BSEP, OU=Tim 2, CN=order
        Subject Public Key Info:
            Public Key Algorithm: rsaEncryption
                Public-Key: (4096 bit)
                Modulus:
                    00:ca:0c:b7:9c:da:74:4c:61:b1:31:0a:3a:8b:5a:
                    49:b1:c2:d4:dd:ad:1e:02:2f:d9:20:9b:5e:59:8a:
                    90:12:be:ca:be:a0:ec:cb:83:e5:70:f4:e3:9d:03:
                    0d:d8:dd:f2:5e:21:d6:3e:05:38:cb:da:03:7e:1c:
                    67:ba:05:eb:fe:a6:41:24:99:a3:2a:19:c8:e1:4f:
                    46:91:f1:60:7e:b3:74:7b:37:40:0f:36:63:03:b6:
                    db:c6:99:fc:f3:59:44:ad:28:c0:75:e3:2b:52:5d:
                    7f:dc:1b:96:67:6c:6a:53:4a:26:56:23:08:9f:1c:
                    e7:11:4f:e9:cc:a4:47:4b:d8:85:b5:50:98:47:58:
                    5f:e0:21:2a:56:43:b2:6c:9b:47:c4:c9:1b:94:bf:
                    77:44:ef:6e:6f:64:cb:97:ab:4e:3e:3d:b3:62:b4:
                    47:ac:8e:3a:15:11:16:e2:ba:f6:c4:cf:8f:8c:8d:
                    70:fe:98:e5:eb:5b:b6:20:63:a8:1e:d3:b3:1e:19:
                    3c:ee:ea:c7:9d:79:89:4d:e0:93:ff:60:95:db:b7:
                    21:5c:fb:0b:f4:ed:e3:17:8e:58:f1:39:b3:63:c6:
                    a5:21:00:e8:10:68:45:dd:18:64:19:d1:67:c8:cd:
                    c3:f5:76:2e:a4:73:c5:b2:f2:99:b8:88:83:bf:c1:
                    13:92:df:1a:4b:91:5c:83:dd:35:d3:52:08:2e:8b:
                    b0:bc:94:10:d1:6e:d6:7e:69:2b:f8:25:1a:57:18:
                    db:21:c6:9a:f1:5a:14:2f:c1:4f:be:28:b2:cf:3f:
                    03:21:87:f2:b6:31:3e:6f:3b:67:6c:e7:38:a2:e9:
                    2e:28:47:0e:eb:40:fe:7e:52:7a:5b:15:aa:f9:13:
                    72:48:8b:2c:35:3c:20:83:13:9a:6e:d3:29:07:21:
                    f6:d8:2d:58:0c:a2:39:0f:14:b5:d5:84:43:3c:7a:
                    5a:67:58:77:02:b1:a5:fd:ba:83:0b:b9:94:46:6c:
                    56:dd:71:5d:be:00:0d:27:1c:b8:6c:66:36:b3:17:
                    8f:b7:e6:c4:b2:90:2d:25:63:e2:f3:82:7b:7e:c9:
                    39:39:51:d7:a4:97:62:bf:77:c3:97:26:76:20:e0:
                    02:25:dd:30:13:b7:b4:fd:bb:ed:f6:2f:ac:9c:1d:
                    04:a6:67:dc:dd:73:04:66:24:70:71:bd:3e:a4:46:
                    3e:62:6b:b6:8c:ed:5e:b0:f2:6f:ed:d0:1d:b7:41:
                    74:b5:30:40:98:6f:cf:94:61:0e:d9:70:0c:b9:50:
                    18:88:38:a1:90:59:6a:61:b1:12:80:76:64:c5:54:
                    50:85:d7:f0:f5:b6:5e:b4:3c:7c:a9:10:cf:be:66:
                    8b:3f:0d
                Exponent: 65537 (0x10001)
        X509v3 extensions:
            X509v3 Key Usage: critical
                Digital Signature, Key Encipherment
            X509v3 Basic Constraints: 
                CA:FALSE
            X509v3 Extended Key Usage: 
                TLS Web Server Authentication, TLS Web Client Authentication
            X509v3 Subject Key Identifier: 
                90:65:4F:90:76:52:21:18:0E:DB:A7:6E:B1:54:68:CE:BE:32:EE:23
            X509v3 Authority Key Identifier: 
                keyid:A3:9D:5A:C1:DA:0D:64:9E:55:C0:B0:1A:51:4C:0D:D9:71:3C:E3:96

            Authority Information Access: 
                CA Issuers - URI:http//tim2.xws/ca/tls-ca.cer

            X509v3 CRL Distribution Points: 

                Full Name:
                  URI:http//tim2.xws/ca/tls-ca.crl

            X509v3 Subject Alternative Name: 
                DNS:tim2.xws, DNS:host.docker.internal, DNS:localhost, DNS:eureka, IP Address:172.20.0.0, IP Address:26.206.31.193, IP Address:10.0.2.15, IP Address:192.168.1.7, IP Address:192.168.99.1, IP Address:127.0.0.1
    Signature Algorithm: sha256WithRSAEncryption
         0e:16:ef:05:54:36:91:13:ea:35:4a:16:01:21:4b:40:f4:65:
         3c:22:0a:cf:a1:dc:16:dc:50:6a:c9:9e:67:61:27:67:5b:60:
         f6:81:5f:6e:d2:d2:0e:18:47:2d:fe:b5:b7:78:3f:67:f7:fe:
         42:1b:b8:2f:48:40:8a:eb:f3:4a:b4:8f:2b:da:20:de:75:a4:
         c8:8f:38:9f:e6:7e:97:e9:3e:ed:4a:ae:7b:f4:b5:e7:c0:1f:
         60:f5:b2:3f:ae:f7:48:bb:23:16:f8:54:96:93:96:04:be:07:
         a9:51:5c:d8:e5:11:86:34:94:5e:da:e9:76:05:2a:60:a9:4e:
         1e:c9:f0:08:f7:6b:fe:8d:6c:a9:50:51:f6:5a:34:aa:2e:a0:
         18:eb:98:8a:ed:09:19:d7:4e:33:96:11:c4:26:68:ce:e9:f0:
         0b:f4:d5:74:dc:16:2c:df:cb:bc:4e:dd:2e:ab:be:11:4c:75:
         06:ae:13:00:4b:71:46:38:b5:2f:c1:33:ea:01:d6:59:1d:a2:
         7f:93:65:e4:54:34:f0:f3:b1:58:18:51:0e:66:68:2e:bf:5a:
         55:94:71:7e:6b:82:11:70:7b:2e:5f:84:e4:ed:13:ab:bd:0c:
         54:9c:76:98:1b:04:e3:c6:22:4a:d3:6c:de:fd:39:10:ac:b2:
         2d:91:1a:2e:26:ac:be:4a:27:77:46:e9:cb:9f:af:2a:fb:7e:
         13:28:1a:46:89:f5:9a:b3:99:3d:c3:e3:1a:7a:b8:cf:24:2c:
         c8:ea:2b:93:e0:6e:9b:97:5d:43:ab:a2:a3:4c:01:1e:92:11:
         3d:57:c0:97:cf:bd:10:4e:9b:8d:ab:25:20:bb:b3:26:9b:12:
         46:d7:bd:99:0f:8e:8a:9d:eb:ae:8d:4d:a4:36:ba:22:9e:1e:
         10:df:0e:f7:e5:12:6d:9d:37:52:1d:b4:60:84:64:eb:f6:da:
         85:73:8e:66:70:73:20:88:65:ee:eb:6f:6e:e9:b0:1c:b4:f3:
         bc:56:f1:34:5b:0f:61:ba:ca:62:3a:a5:92:83:a0:c7:01:cc:
         40:a8:e0:e3:64:13:f9:98:24:4b:3d:e0:88:d5:a5:f2:f3:d4:
         a4:0c:ca:8a:8a:83:b6:e1:4c:52:c7:11:bb:b2:82:91:11:31:
         cc:8b:d2:4e:23:9a:54:e5:d9:f9:9d:60:72:48:7d:14:cd:2f:
         29:87:e1:fe:e1:9d:17:14:5b:37:60:2a:79:60:f0:d5:ff:31:
         59:70:88:34:2c:3d:61:1a:7c:30:85:93:12:18:ad:c6:92:3b:
         c2:cf:42:36:18:14:cc:37:65:e0:99:60:45:10:78:a8:e3:39:
         b4:f9:dd:68:6f:53:f0:4a
-----BEGIN CERTIFICATE-----
MIIGQDCCBCigAwIBAgIBBzANBgkqhkiG9w0BAQsFADA+MQswCQYDVQQGEwJOTzEN
MAsGA1UECgwEQlNFUDEOMAwGA1UECwwFVGltIDIxEDAOBgNVBAMMB1RpbTIgQ0Ew
HhcNMjAwNjI2MDkyNjE0WhcNMjIwNjI2MDkyNjE0WjA8MQswCQYDVQQGEwJOTzEN
MAsGA1UECgwEQlNFUDEOMAwGA1UECwwFVGltIDIxDjAMBgNVBAMMBW9yZGVyMIIC
IjANBgkqhkiG9w0BAQEFAAOCAg8AMIICCgKCAgEAygy3nNp0TGGxMQo6i1pJscLU
3a0eAi/ZIJteWYqQEr7KvqDsy4PlcPTjnQMN2N3yXiHWPgU4y9oDfhxnugXr/qZB
JJmjKhnI4U9GkfFgfrN0ezdADzZjA7bbxpn881lErSjAdeMrUl1/3BuWZ2xqU0om
ViMInxznEU/pzKRHS9iFtVCYR1hf4CEqVkOybJtHxMkblL93RO9ub2TLl6tOPj2z
YrRHrI46FREW4rr2xM+PjI1w/pjl61u2IGOoHtOzHhk87urHnXmJTeCT/2CV27ch
XPsL9O3jF45Y8TmzY8alIQDoEGhF3RhkGdFnyM3D9XYupHPFsvKZuIiDv8ETkt8a
S5Fcg90101IILouwvJQQ0W7Wfmkr+CUaVxjbIcaa8VoUL8FPviiyzz8DIYfytjE+
bztnbOc4oukuKEcO60D+flJ6WxWq+RNySIssNTwggxOabtMpByH22C1YDKI5DxS1
1YRDPHpaZ1h3ArGl/bqDC7mURmxW3XFdvgANJxy4bGY2sxePt+bEspAtJWPi84J7
fsk5OVHXpJdiv3fDlyZ2IOACJd0wE7e0/bvt9i+snB0Epmfc3XMEZiRwcb0+pEY+
Ymu2jO1esPJv7dAdt0F0tTBAmG/PlGEO2XAMuVAYiDihkFlqYbESgHZkxVRQhdfw
9bZetDx8qRDPvmaLPw0CAwEAAaOCAUkwggFFMA4GA1UdDwEB/wQEAwIFoDAJBgNV
HRMEAjAAMB0GA1UdJQQWMBQGCCsGAQUFBwMBBggrBgEFBQcDAjAdBgNVHQ4EFgQU
kGVPkHZSIRgO26dusVRozr4y7iMwHwYDVR0jBBgwFoAUo51awdoNZJ5VwLAaUUwN
2XE845YwOAYIKwYBBQUHAQEELDAqMCgGCCsGAQUFBzAChhxodHRwLy90aW0yLnh3
cy9jYS90bHMtY2EuY2VyMC0GA1UdHwQmMCQwIqAgoB6GHGh0dHAvL3RpbTIueHdz
L2NhL3Rscy1jYS5jcmwwYAYDVR0RBFkwV4IIdGltMi54d3OCFGhvc3QuZG9ja2Vy
LmludGVybmFsgglsb2NhbGhvc3SCBmV1cmVrYYcErBQAAIcEGs4fwYcECgACD4cE
wKgBB4cEwKhjAYcEfwAAATANBgkqhkiG9w0BAQsFAAOCAgEADhbvBVQ2kRPqNUoW
ASFLQPRlPCIKz6HcFtxQasmeZ2EnZ1tg9oFfbtLSDhhHLf61t3g/Z/f+Qhu4L0hA
iuvzSrSPK9og3nWkyI84n+Z+l+k+7Uque/S158AfYPWyP673SLsjFvhUlpOWBL4H
qVFc2OURhjSUXtrpdgUqYKlOHsnwCPdr/o1sqVBR9lo0qi6gGOuYiu0JGddOM5YR
xCZozunwC/TVdNwWLN/LvE7dLqu+EUx1Bq4TAEtxRji1L8Ez6gHWWR2if5Nl5FQ0
8POxWBhRDmZoLr9aVZRxfmuCEXB7Ll+E5O0Tq70MVJx2mBsE48YiStNs3v05EKyy
LZEaLiasvkond0bpy5+vKvt+EygaRon1mrOZPcPjGnq4zyQsyOork+Bum5ddQ6ui
o0wBHpIRPVfAl8+9EE6bjaslILuzJpsSRte9mQ+Oip3rro1NpDa6Ip4eEN8O9+US
bZ03Uh20YIRk6/bahXOOZnBzIIhl7utvbumwHLTzvFbxNFsPYbrKYjqlkoOgxwHM
QKjg42QT+ZgkSz3giNWl8vPUpAzKioqDtuFMUscRu7KCkRExzIvSTiOaVOXZ+Z1g
ckh9FM0vKYfh/uGdFxRbN2AqeWDw1f8xWXCINCw9YRp8MIWTEhitxpI7ws9CNhgU
zDdl4JlgRRB4qOM5tPndaG9T8Eo=
-----END CERTIFICATE-----
