Certificate:
    Data:
        Version: 3 (0x2)
        Serial Number: 9 (0x9)
    Signature Algorithm: sha256WithRSAEncryption
        Issuer: C=NO, O=BSEP, OU=Tim 2, CN=Tim2 CA
        Validity
            Not Before: Jun 20 12:48:06 2020 GMT
            Not After : Jun 20 12:48:06 2022 GMT
        Subject: C=NO, O=BSEP, OU=Tim 2, CN=Peter Peterson
        Subject Public Key Info:
            Public Key Algorithm: rsaEncryption
                Public-Key: (4096 bit)
                Modulus:
                    00:f2:80:77:39:c0:cb:32:cd:37:b4:3e:e4:92:61:
                    ed:67:6b:da:08:b4:ed:eb:9a:29:d6:a0:fd:60:e5:
                    37:58:28:f1:0d:2f:46:a0:fc:0c:26:9e:e3:b8:73:
                    2d:73:1a:3c:b1:3d:6c:85:16:3d:10:d9:40:13:6e:
                    09:62:b1:49:81:be:d2:4a:3a:7e:da:e4:2f:3a:c3:
                    e9:4f:84:09:f8:d2:f8:4f:63:35:21:94:90:b6:db:
                    32:ef:1d:49:f9:93:2a:d0:55:52:d4:94:48:e9:11:
                    2d:8f:a0:de:6e:07:7e:8a:76:46:60:57:11:6d:fa:
                    66:b9:70:8b:c1:8d:7d:ba:bf:5a:10:66:b8:a9:31:
                    61:a1:ea:44:7e:db:0f:de:9e:ab:fb:04:c2:24:9e:
                    a2:3f:75:d3:16:27:00:cf:01:f2:8b:6a:21:5f:e6:
                    0c:43:95:b4:8e:7d:26:d0:e0:6d:5c:fe:c0:b9:c2:
                    ed:4d:b7:ea:8a:c5:86:77:6a:ec:38:0f:02:47:d2:
                    d0:31:da:aa:2d:35:69:36:37:06:f1:03:19:8e:3c:
                    bd:ac:a0:b3:57:14:11:4c:3a:bb:dd:08:a9:f2:9b:
                    6b:63:67:c3:85:0e:9c:58:32:c2:51:3f:51:8b:1e:
                    fa:19:c4:11:da:be:ca:4a:23:51:9a:0d:d1:84:fe:
                    44:e9:66:7e:a3:b2:87:d5:93:2c:96:1d:d4:a9:43:
                    45:a7:6e:36:a4:17:45:0b:9f:9b:78:c0:db:9e:40:
                    07:a9:23:7e:63:c6:b9:d5:39:61:05:eb:a7:5d:8d:
                    f3:87:43:6f:67:2e:53:2d:da:5f:2b:ba:55:aa:01:
                    53:5e:1b:4c:25:ce:07:40:b8:4b:c7:76:ee:b0:3a:
                    bd:1a:84:a5:e9:f2:b9:f5:37:f5:98:d7:81:94:5a:
                    64:34:7a:50:2e:ed:f3:cb:5f:f2:a6:6d:4b:81:13:
                    7a:ba:b9:6b:c2:78:af:be:16:ac:92:cd:69:30:51:
                    d1:34:02:ab:6d:74:60:d4:ae:ec:30:6e:37:84:90:
                    6d:5e:67:80:6e:19:8e:c0:44:a6:95:e5:2b:63:28:
                    51:f3:34:be:e9:d4:a5:86:f3:0f:3a:6a:7e:dd:a2:
                    41:ad:b9:9f:37:30:de:ae:10:ac:1d:24:d7:cb:87:
                    63:09:7b:c5:35:d5:46:3b:e6:c2:d2:1f:6f:bd:d8:
                    d6:b9:62:af:ce:92:11:ec:38:46:df:63:ef:0a:92:
                    0b:c7:18:22:03:35:9b:1f:ac:1c:03:c7:be:06:5d:
                    00:f8:08:d2:54:f2:61:70:cc:7b:51:37:b8:dc:3c:
                    c5:3a:6e:31:86:12:fe:de:df:d0:74:26:f2:8e:72:
                    cd:ef:99
                Exponent: 65537 (0x10001)
        X509v3 extensions:
            X509v3 Key Usage: critical
                Digital Signature
            X509v3 Basic Constraints: 
                CA:FALSE
            X509v3 Extended Key Usage: 
                TLS Web Client Authentication
            X509v3 Subject Key Identifier: 
                28:99:55:96:54:29:0F:62:AD:E3:BB:01:6B:74:F4:8E:DA:D6:EA:E0
            X509v3 Authority Key Identifier: 
                keyid:AB:ED:25:FE:54:00:34:9F:1D:AB:8F:4F:89:06:B2:48:6F:04:6D:67

            Authority Information Access: 
                CA Issuers - URI:http//tim2.xws/ca/tls-ca.cer

            X509v3 CRL Distribution Points: 

                Full Name:
                  URI:http//tim2.xws/ca/tls-ca.crl

    Signature Algorithm: sha256WithRSAEncryption
         c4:a2:22:4e:1b:ab:37:21:75:fe:bd:48:6f:0a:c2:32:97:e1:
         dc:bd:e5:71:a3:dc:e1:e3:5e:78:79:d4:06:91:e6:1c:f9:46:
         35:aa:ed:9c:04:5a:e2:86:eb:2c:a1:33:15:e5:1d:dd:d2:fd:
         9a:ee:33:04:ca:80:6d:9c:5d:00:81:ae:a7:87:52:e6:19:3f:
         53:f6:4e:d5:40:98:b4:e2:5f:ff:3b:6b:5f:cb:65:b9:5d:83:
         01:34:a1:0a:5e:3a:57:38:41:a2:1f:b9:e7:d6:f7:8c:b7:cf:
         13:a9:d1:cf:b1:1c:bb:cc:ad:d1:63:49:47:4d:9e:e5:4c:34:
         c7:27:66:e7:c8:5a:71:48:5c:bd:fd:bf:dd:1e:bf:bb:36:f5:
         97:2e:04:89:0b:10:c9:06:fa:3c:34:db:aa:71:eb:c2:1a:9d:
         5c:f0:00:43:81:2d:af:03:f0:96:84:a7:25:ef:28:ca:03:b1:
         65:59:d3:cb:3f:5d:5f:9f:14:58:0e:47:1b:26:da:ca:e8:3d:
         bb:a5:9f:47:3a:5f:a2:28:cf:23:97:40:35:25:4c:a3:a1:be:
         71:c8:18:21:96:9f:a0:18:05:d1:b1:54:20:80:64:fa:48:ad:
         bb:b8:55:9e:7a:e2:24:12:0e:b1:0e:07:22:9a:a5:90:ef:3e:
         bc:4b:6a:b3:2b:18:a2:74:af:27:34:ac:cf:b4:9f:72:de:eb:
         82:a4:d9:36:49:fd:a1:74:e7:fb:67:41:1f:ba:d1:c4:19:1e:
         7a:2e:87:6b:b5:6e:9d:75:0c:52:0c:aa:66:73:d6:1c:bf:0d:
         33:81:07:72:e3:84:0a:d7:0e:b9:55:5a:50:d7:a5:c2:aa:e3:
         8b:e0:f4:de:19:e3:dc:f2:ff:57:a4:50:64:a0:d7:fe:af:17:
         67:fd:2f:46:e0:74:4f:d5:ed:64:e9:a4:64:ac:49:75:ce:5e:
         7f:98:b5:15:a4:cc:56:ab:10:c2:7a:10:a3:9c:e4:ad:98:00:
         96:1e:31:23:8c:16:6e:7e:2f:65:da:9e:00:7e:87:58:c8:2d:
         00:27:12:2c:6d:b1:e5:76:02:6a:99:03:1e:b2:a8:d7:45:be:
         9b:18:c0:66:a1:be:c9:69:21:52:62:79:c2:f2:90:dc:21:a5:
         96:5e:89:9a:d3:ec:57:5a:dd:0e:e9:ca:14:13:4d:43:f6:25:
         3b:c4:1f:26:ef:a1:d9:0f:38:f5:7e:c2:10:97:b4:3b:60:89:
         c3:fb:00:3d:f4:20:e8:0b:86:38:61:e8:19:e8:4b:85:91:71:
         85:dd:e1:2d:6c:0a:48:46:fd:d6:23:bf:e1:bb:34:6b:d5:34:
         c3:a9:0c:cc:29:a2:22:4d
-----BEGIN CERTIFICATE-----
MIIF2zCCA8OgAwIBAgIBCTANBgkqhkiG9w0BAQsFADA+MQswCQYDVQQGEwJOTzEN
MAsGA1UECgwEQlNFUDEOMAwGA1UECwwFVGltIDIxEDAOBgNVBAMMB1RpbTIgQ0Ew
HhcNMjAwNjIwMTI0ODA2WhcNMjIwNjIwMTI0ODA2WjBFMQswCQYDVQQGEwJOTzEN
MAsGA1UECgwEQlNFUDEOMAwGA1UECwwFVGltIDIxFzAVBgNVBAMMDlBldGVyIFBl
dGVyc29uMIICIjANBgkqhkiG9w0BAQEFAAOCAg8AMIICCgKCAgEA8oB3OcDLMs03
tD7kkmHtZ2vaCLTt65op1qD9YOU3WCjxDS9GoPwMJp7juHMtcxo8sT1shRY9ENlA
E24JYrFJgb7SSjp+2uQvOsPpT4QJ+NL4T2M1IZSQttsy7x1J+ZMq0FVS1JRI6REt
j6Debgd+inZGYFcRbfpmuXCLwY19ur9aEGa4qTFhoepEftsP3p6r+wTCJJ6iP3XT
FicAzwHyi2ohX+YMQ5W0jn0m0OBtXP7AucLtTbfqisWGd2rsOA8CR9LQMdqqLTVp
NjcG8QMZjjy9rKCzVxQRTDq73Qip8ptrY2fDhQ6cWDLCUT9Rix76GcQR2r7KSiNR
mg3RhP5E6WZ+o7KH1ZMslh3UqUNFp242pBdFC5+beMDbnkAHqSN+Y8a51TlhBeun
XY3zh0NvZy5TLdpfK7pVqgFTXhtMJc4HQLhLx3busDq9GoSl6fK59Tf1mNeBlFpk
NHpQLu3zy1/ypm1LgRN6urlrwnivvhasks1pMFHRNAKrbXRg1K7sMG43hJBtXmeA
bhmOwESmleUrYyhR8zS+6dSlhvMPOmp+3aJBrbmfNzDerhCsHSTXy4djCXvFNdVG
O+bC0h9vvdjWuWKvzpIR7DhG32PvCpILxxgiAzWbH6wcA8e+Bl0A+AjSVPJhcMx7
UTe43DzFOm4xhhL+3t/QdCbyjnLN75kCAwEAAaOB3DCB2TAOBgNVHQ8BAf8EBAMC
B4AwCQYDVR0TBAIwADATBgNVHSUEDDAKBggrBgEFBQcDAjAdBgNVHQ4EFgQUKJlV
llQpD2Kt47sBa3T0jtrW6uAwHwYDVR0jBBgwFoAUq+0l/lQANJ8dq49PiQaySG8E
bWcwOAYIKwYBBQUHAQEELDAqMCgGCCsGAQUFBzAChhxodHRwLy90aW0yLnh3cy9j
YS90bHMtY2EuY2VyMC0GA1UdHwQmMCQwIqAgoB6GHGh0dHAvL3RpbTIueHdzL2Nh
L3Rscy1jYS5jcmwwDQYJKoZIhvcNAQELBQADggIBAMSiIk4bqzchdf69SG8KwjKX
4dy95XGj3OHjXnh51AaR5hz5RjWq7ZwEWuKG6yyhMxXlHd3S/ZruMwTKgG2cXQCB
rqeHUuYZP1P2TtVAmLTiX/87a1/LZbldgwE0oQpeOlc4QaIfuefW94y3zxOp0c+x
HLvMrdFjSUdNnuVMNMcnZufIWnFIXL39v90ev7s29ZcuBIkLEMkG+jw026px68Ia
nVzwAEOBLa8D8JaEpyXvKMoDsWVZ08s/XV+fFFgORxsm2sroPbuln0c6X6IozyOX
QDUlTKOhvnHIGCGWn6AYBdGxVCCAZPpIrbu4VZ564iQSDrEOByKapZDvPrxLarMr
GKJ0ryc0rM+0n3Le64Kk2TZJ/aF05/tnQR+60cQZHnouh2u1bp11DFIMqmZz1hy/
DTOBB3LjhArXDrlVWlDXpcKq44vg9N4Z49zy/1ekUGSg1/6vF2f9L0bgdE/V7WTp
pGSsSXXOXn+YtRWkzFarEMJ6EKOc5K2YAJYeMSOMFm5+L2XangB+h1jILQAnEixt
seV2AmqZAx6yqNdFvpsYwGahvslpIVJiecLykNwhpZZeiZrT7Fda3Q7pyhQTTUP2
JTvEHybvodkPOPV+whCXtDtgicP7AD30IOgLhjhh6BnoS4WRcYXd4S1sCkhG/dYj
v+G7NGvVNMOpDMwpoiJN
-----END CERTIFICATE-----
