Certificate:
    Data:
        Version: 3 (0x2)
        Serial Number: 10 (0xa)
    Signature Algorithm: sha256WithRSAEncryption
        Issuer: C=NO, O=BSEP, OU=Tim 2, CN=Tim2 CA
        Validity
            Not Before: Jun 26 09:26:15 2020 GMT
            Not After : Jun 26 09:26:15 2022 GMT
        Subject: C=NO, O=BSEP, OU=Tim 2, CN=Peter Peterson
        Subject Public Key Info:
            Public Key Algorithm: rsaEncryption
                Public-Key: (4096 bit)
                Modulus:
                    00:e2:8c:f5:be:57:76:43:92:da:d8:8c:3a:0b:f6:
                    97:8d:7d:11:a6:ff:97:24:7d:26:db:14:40:92:97:
                    8a:00:8d:22:f8:ba:e0:0f:9f:f4:5c:f6:5e:1a:9e:
                    b6:65:16:dc:b7:0b:3f:27:6b:c3:5b:f3:8e:6e:a1:
                    b7:16:10:ff:51:a4:52:c4:01:96:e7:73:ff:c0:0e:
                    b7:19:68:dc:c1:9b:c4:0a:45:3a:cf:8a:61:3d:1e:
                    34:3d:ce:f9:0f:a0:ea:40:5a:d6:a0:41:eb:17:9d:
                    22:5f:0d:ad:73:37:b2:2b:5b:b5:e2:c2:66:af:7c:
                    fb:8e:bd:ab:80:7c:75:97:75:39:6c:4d:b2:c4:86:
                    00:50:5b:36:39:d5:a2:56:5c:c5:e9:66:a8:c7:c5:
                    6e:62:0a:a7:75:32:92:b5:7d:28:e5:92:29:ef:ef:
                    9e:94:22:ff:da:22:ab:99:41:5e:f0:0c:6a:ae:4b:
                    52:d0:07:6e:3c:6f:52:cd:19:7a:b5:5f:c0:4b:03:
                    b7:bf:a1:41:e3:c8:4a:c8:c1:0e:a6:44:a7:10:dd:
                    ed:a2:80:8a:fe:d3:82:05:3a:16:b9:3a:b4:33:39:
                    33:29:17:96:cd:b7:3d:6e:b5:5c:c6:1a:95:3c:1e:
                    b5:0a:ab:2d:43:02:3e:24:56:f4:6d:a0:b4:a2:09:
                    e3:8b:92:de:a5:a2:47:5c:2a:63:0a:8e:c5:b5:47:
                    f0:02:27:4d:d6:5e:70:e3:13:c1:46:60:7c:10:f2:
                    d1:9f:f8:eb:2a:b1:c0:e8:d5:d8:02:ae:16:b8:8d:
                    2b:7b:03:d1:5e:d9:87:ba:5c:1e:73:ce:4b:78:0e:
                    4b:ed:67:b6:8d:53:a7:be:85:2f:50:46:21:0b:da:
                    ef:45:ef:4b:07:cb:de:2f:6d:7c:05:6f:24:b9:17:
                    a8:2e:55:74:00:0a:08:31:3b:4a:ae:6c:3f:a1:2a:
                    7c:ec:98:bf:57:21:f2:1b:2e:49:87:05:c1:42:65:
                    6d:ef:41:0b:cc:53:00:4b:7a:b6:41:36:4d:2e:61:
                    1a:49:a6:58:ff:f3:40:80:f6:3c:af:71:d1:2d:a9:
                    91:c6:dd:16:23:14:eb:d6:c7:8a:ce:d7:df:a8:87:
                    74:05:7c:06:24:4f:52:f6:49:2f:59:a6:ba:64:45:
                    1b:07:df:7b:78:d5:18:bf:ab:40:ce:d5:01:74:03:
                    01:55:a5:fb:d3:44:1b:d4:a8:65:4d:a8:d8:47:ac:
                    a3:39:53:76:57:4c:aa:77:25:ab:05:98:09:43:07:
                    79:5d:e6:ba:b2:18:80:54:45:e4:19:cf:9b:93:38:
                    95:50:7c:b1:ad:17:bb:34:87:b5:46:66:b6:4b:fe:
                    fc:63:1b
                Exponent: 65537 (0x10001)
        X509v3 extensions:
            X509v3 Key Usage: critical
                Digital Signature
            X509v3 Basic Constraints: 
                CA:FALSE
            X509v3 Extended Key Usage: 
                TLS Web Client Authentication
            X509v3 Subject Key Identifier: 
                54:A8:EF:B4:22:FF:5E:D3:C5:08:54:DB:93:F7:BA:B4:B9:E3:55:FC
            X509v3 Authority Key Identifier: 
                keyid:A3:9D:5A:C1:DA:0D:64:9E:55:C0:B0:1A:51:4C:0D:D9:71:3C:E3:96

            Authority Information Access: 
                CA Issuers - URI:http//tim2.xws/ca/tls-ca.cer

            X509v3 CRL Distribution Points: 

                Full Name:
                  URI:http//tim2.xws/ca/tls-ca.crl

    Signature Algorithm: sha256WithRSAEncryption
         e4:52:2c:b3:e2:a4:d0:4d:cc:96:77:75:a1:ec:86:1f:d3:d4:
         90:46:ae:92:18:66:a9:48:3c:ac:e7:fd:ff:52:95:ec:71:ac:
         dc:4e:ee:93:3f:2d:16:48:5d:13:99:f6:09:ad:7b:97:c8:e1:
         88:b0:83:f8:cc:cf:2b:b6:5d:10:ac:0a:98:35:fb:58:32:ad:
         cd:5c:35:d6:12:8d:71:07:f3:fe:96:e1:57:33:39:9b:de:e2:
         24:0a:68:03:4b:85:39:c6:04:58:42:d4:91:04:df:3f:98:ff:
         f3:9e:99:05:f0:c4:d6:75:8e:c4:fd:99:4b:c0:7d:1e:f5:da:
         eb:b9:b9:d1:0b:52:88:c3:1a:da:5f:c7:d9:d9:d7:ff:78:7f:
         49:7d:c1:de:81:9c:70:17:f6:92:9c:1d:9d:02:b7:e0:9c:82:
         a6:ba:07:12:56:01:e9:b6:8c:ad:5c:e4:46:02:91:fa:6e:8a:
         68:9e:e8:e2:cd:d9:4c:94:e5:8c:a0:6b:c9:68:27:6e:0b:69:
         75:74:37:5c:87:ff:f9:27:4d:37:4a:ba:62:a6:7b:63:44:73:
         31:95:f6:61:29:e7:37:83:15:60:05:3b:d0:ea:66:b8:59:b9:
         76:49:d1:f2:9d:cf:da:fc:86:1d:78:af:24:f1:7e:ec:0c:b2:
         36:26:fe:e8:77:63:70:3c:ed:24:86:28:4b:b2:ba:84:78:81:
         1f:4d:ba:9c:19:bc:34:83:a2:09:e2:ac:0d:cf:b8:47:92:ad:
         c2:77:34:cd:2e:20:5d:d6:78:1f:19:5b:d6:06:f7:d3:86:03:
         df:df:b6:27:c9:90:b7:66:da:29:ec:2d:f0:5f:06:65:35:a4:
         ad:72:3e:49:c0:7a:48:ab:55:58:7b:e3:c1:d5:1d:81:03:18:
         0b:fd:05:d6:ad:35:35:f2:27:91:cf:e6:da:6c:a7:6f:dc:2f:
         61:dc:e0:d7:d9:05:70:a8:c0:15:85:2c:4b:f2:3f:2c:1d:90:
         76:41:56:4c:aa:f5:b9:9a:d5:0d:8f:81:58:87:2d:47:55:7e:
         5e:01:65:25:08:7f:98:e7:2f:e1:e1:45:d6:7b:50:35:fe:a0:
         70:f1:8b:d2:58:9c:66:f1:cb:c9:0e:4d:8d:be:42:c8:ca:19:
         71:8b:1a:fd:4f:af:36:7a:90:26:08:05:07:c0:47:b4:66:0c:
         16:c2:bc:e6:63:30:0c:3b:72:3d:ed:14:d5:be:12:81:56:58:
         08:6a:e7:54:f1:fa:e5:c1:6e:03:b7:3a:07:6a:d9:8a:0e:4a:
         c3:67:a8:8e:ed:d1:37:8e:a3:48:1b:24:83:a5:87:51:2a:05:
         93:86:5d:1e:6a:e0:31:97
-----BEGIN CERTIFICATE-----
MIIF2zCCA8OgAwIBAgIBCjANBgkqhkiG9w0BAQsFADA+MQswCQYDVQQGEwJOTzEN
MAsGA1UECgwEQlNFUDEOMAwGA1UECwwFVGltIDIxEDAOBgNVBAMMB1RpbTIgQ0Ew
HhcNMjAwNjI2MDkyNjE1WhcNMjIwNjI2MDkyNjE1WjBFMQswCQYDVQQGEwJOTzEN
MAsGA1UECgwEQlNFUDEOMAwGA1UECwwFVGltIDIxFzAVBgNVBAMMDlBldGVyIFBl
dGVyc29uMIICIjANBgkqhkiG9w0BAQEFAAOCAg8AMIICCgKCAgEA4oz1vld2Q5La
2Iw6C/aXjX0Rpv+XJH0m2xRAkpeKAI0i+LrgD5/0XPZeGp62ZRbctws/J2vDW/OO
bqG3FhD/UaRSxAGW53P/wA63GWjcwZvECkU6z4phPR40Pc75D6DqQFrWoEHrF50i
Xw2tczeyK1u14sJmr3z7jr2rgHx1l3U5bE2yxIYAUFs2OdWiVlzF6Waox8VuYgqn
dTKStX0o5ZIp7++elCL/2iKrmUFe8AxqrktS0AduPG9SzRl6tV/ASwO3v6FB48hK
yMEOpkSnEN3tooCK/tOCBToWuTq0MzkzKReWzbc9brVcxhqVPB61CqstQwI+JFb0
baC0ognji5LepaJHXCpjCo7FtUfwAidN1l5w4xPBRmB8EPLRn/jrKrHA6NXYAq4W
uI0rewPRXtmHulwec85LeA5L7We2jVOnvoUvUEYhC9rvRe9LB8veL218BW8kuReo
LlV0AAoIMTtKrmw/oSp87Ji/VyHyGy5JhwXBQmVt70ELzFMAS3q2QTZNLmEaSaZY
//NAgPY8r3HRLamRxt0WIxTr1seKztffqId0BXwGJE9S9kkvWaa6ZEUbB997eNUY
v6tAztUBdAMBVaX700Qb1KhlTajYR6yjOVN2V0yqdyWrBZgJQwd5Xea6shiAVEXk
Gc+bkziVUHyxrRe7NIe1Rma2S/78YxsCAwEAAaOB3DCB2TAOBgNVHQ8BAf8EBAMC
B4AwCQYDVR0TBAIwADATBgNVHSUEDDAKBggrBgEFBQcDAjAdBgNVHQ4EFgQUVKjv
tCL/XtPFCFTbk/e6tLnjVfwwHwYDVR0jBBgwFoAUo51awdoNZJ5VwLAaUUwN2XE8
45YwOAYIKwYBBQUHAQEELDAqMCgGCCsGAQUFBzAChhxodHRwLy90aW0yLnh3cy9j
YS90bHMtY2EuY2VyMC0GA1UdHwQmMCQwIqAgoB6GHGh0dHAvL3RpbTIueHdzL2Nh
L3Rscy1jYS5jcmwwDQYJKoZIhvcNAQELBQADggIBAORSLLPipNBNzJZ3daHshh/T
1JBGrpIYZqlIPKzn/f9SlexxrNxO7pM/LRZIXROZ9gmte5fI4Yiwg/jMzyu2XRCs
Cpg1+1gyrc1cNdYSjXEH8/6W4VczOZve4iQKaANLhTnGBFhC1JEE3z+Y//OemQXw
xNZ1jsT9mUvAfR712uu5udELUojDGtpfx9nZ1/94f0l9wd6BnHAX9pKcHZ0Ct+Cc
gqa6BxJWAem2jK1c5EYCkfpuimie6OLN2UyU5Yyga8loJ24LaXV0N1yH//knTTdK
umKme2NEczGV9mEp5zeDFWAFO9DqZrhZuXZJ0fKdz9r8hh14ryTxfuwMsjYm/uh3
Y3A87SSGKEuyuoR4gR9NupwZvDSDognirA3PuEeSrcJ3NM0uIF3WeB8ZW9YG99OG
A9/ftifJkLdm2insLfBfBmU1pK1yPknAekirVVh748HVHYEDGAv9BdatNTXyJ5HP
5tpsp2/cL2Hc4NfZBXCowBWFLEvyPywdkHZBVkyq9bma1Q2PgViHLUdVfl4BZSUI
f5jnL+HhRdZ7UDX+oHDxi9JYnGbxy8kOTY2+QsjKGXGLGv1PrzZ6kCYIBQfAR7Rm
DBbCvOZjMAw7cj3tFNW+EoFWWAhq51Tx+uXBbgO3Ogdq2YoOSsNnqI7t0TeOo0gb
JIOlh1EqBZOGXR5q4DGX
-----END CERTIFICATE-----
