Certificate:
    Data:
        Version: 3 (0x2)
        Serial Number: 1 (0x1)
    Signature Algorithm: sha256WithRSAEncryption
        Issuer: C=NO, O=BSEP, OU=Tim 2, CN=Tim2 CA
        Validity
            Not Before: Jun 20 12:48:00 2020 GMT
            Not After : Jun 20 12:48:00 2022 GMT
        Subject: C=NO, O=BSEP, OU=Tim 2, CN=eureka
        Subject Public Key Info:
            Public Key Algorithm: rsaEncryption
                Public-Key: (4096 bit)
                Modulus:
                    00:c6:81:35:96:5c:ae:74:95:3f:ef:b0:eb:a1:cf:
                    a7:d3:bb:01:25:70:23:75:a0:03:b5:e7:0f:9a:8e:
                    9a:ce:f4:d3:02:42:7b:e3:20:33:cc:7b:bf:6f:97:
                    fd:51:34:9f:33:f5:2b:c4:7c:46:61:5e:bc:58:b8:
                    d0:94:84:5e:10:43:ea:44:f9:98:7b:5c:8e:59:fa:
                    11:56:bb:ec:9e:b6:6d:22:08:eb:a9:1a:5b:a8:99:
                    c5:48:da:c8:2f:07:44:50:c0:c2:aa:41:f9:75:e2:
                    08:45:05:02:6f:db:e1:b1:db:52:04:5d:2a:99:82:
                    29:0e:93:81:54:36:6b:74:d9:52:ca:d1:04:fc:31:
                    b1:7e:5d:bb:05:09:88:80:f9:8f:2a:f5:7a:ba:64:
                    65:58:b8:b6:fa:89:11:d4:d8:a3:ff:6d:3b:9b:28:
                    61:e6:f9:75:f6:c4:b4:0a:af:cb:0b:f2:6f:c2:74:
                    58:4c:4b:ac:84:30:8c:5d:72:08:35:63:9e:07:0e:
                    1e:da:20:a9:a2:c8:46:49:8f:44:ea:bf:9b:57:d2:
                    2b:ea:aa:76:65:45:1a:f9:7b:2b:d8:e2:e4:27:d7:
                    a0:58:d1:5c:31:cd:aa:28:2a:b3:bd:87:78:07:22:
                    d9:1a:44:48:cd:60:27:14:30:8b:73:49:3a:56:9c:
                    e1:29:6c:89:b3:6e:3c:6f:86:ef:13:6f:7e:cf:c7:
                    d0:83:c1:7f:19:c2:0a:53:d7:81:64:80:d8:cd:4b:
                    b5:e5:08:d1:f2:6b:57:60:d5:49:c9:e5:34:eb:b5:
                    31:21:8e:2e:11:82:a7:6e:a3:26:b9:f3:d5:d2:04:
                    e3:21:9f:26:6f:76:39:bb:8e:c8:05:cb:b2:b0:3e:
                    05:f2:13:d4:59:62:ca:7f:59:61:9f:a6:b4:f8:66:
                    0b:f2:15:20:ad:4a:f2:54:b3:a5:66:e1:07:cc:6f:
                    b7:19:77:48:6b:a6:3d:5c:29:29:4b:7b:0a:e0:25:
                    b9:c6:16:8c:39:10:72:50:96:86:9a:d1:68:f6:df:
                    d3:e2:e4:80:a2:84:0e:5d:bd:d2:0e:5b:22:86:9b:
                    34:1b:0e:47:38:c8:7e:53:92:f3:66:a0:68:d2:3e:
                    04:34:33:a6:ef:68:24:04:9c:f9:4d:52:c9:1b:4b:
                    64:27:a9:74:f6:2d:69:0a:05:62:e9:0d:c1:41:e9:
                    6b:d6:3f:74:20:dc:3f:e5:e6:6e:29:99:d0:89:eb:
                    a9:e4:2f:96:6f:ec:f5:8f:44:6e:97:3b:42:a5:93:
                    c7:a4:ec:cc:9f:84:ce:c5:f9:55:72:6f:74:9d:83:
                    25:78:49:f7:dd:a0:2e:b6:a0:b2:c4:f4:46:31:0c:
                    fe:7a:57
                Exponent: 65537 (0x10001)
        X509v3 extensions:
            X509v3 Key Usage: critical
                Digital Signature, Key Encipherment
            X509v3 Basic Constraints: 
                CA:FALSE
            X509v3 Extended Key Usage: 
                TLS Web Server Authentication, TLS Web Client Authentication
            X509v3 Subject Key Identifier: 
                9C:8C:D0:4A:3E:C3:07:AE:28:EB:1B:E4:48:B5:02:95:E7:A7:DB:56
            X509v3 Authority Key Identifier: 
                keyid:AB:ED:25:FE:54:00:34:9F:1D:AB:8F:4F:89:06:B2:48:6F:04:6D:67

            Authority Information Access: 
                CA Issuers - URI:http//tim2.xws/ca/tls-ca.cer

            X509v3 CRL Distribution Points: 

                Full Name:
                  URI:http//tim2.xws/ca/tls-ca.crl

            X509v3 Subject Alternative Name: 
                DNS:tim2.xws, DNS:host.docker.internal, DNS:localhost, DNS:eureka, IP Address:172.20.0.0, IP Address:26.206.31.193, IP Address:10.0.2.15, IP Address:192.168.1.7, IP Address:192.168.99.1, IP Address:127.0.0.1
    Signature Algorithm: sha256WithRSAEncryption
         c4:5c:57:45:71:cb:07:4e:42:f1:24:64:3f:f7:85:bc:e9:6a:
         5a:7a:f3:a8:6c:d7:c3:df:8d:fe:51:d1:44:6d:3c:f5:03:3d:
         e2:22:57:00:c9:1f:f6:cb:83:a4:a0:c6:a9:c1:0f:3c:17:43:
         69:6a:a7:0a:05:db:b8:55:58:a5:ca:6a:1c:15:d7:9e:88:07:
         cc:d5:9a:5a:bb:2d:7e:d3:3b:43:5a:f5:ed:46:70:7e:4b:66:
         30:d7:20:68:7a:b6:d8:c2:35:bb:e1:73:03:bf:27:ad:be:2b:
         b6:d4:97:a7:f2:5e:05:ca:25:b4:d0:23:6c:50:90:33:bb:9a:
         dd:2f:07:6a:dc:0a:9c:5c:b7:5d:ca:89:98:a7:eb:d1:04:ef:
         ef:e0:a4:a0:78:71:4e:87:da:0c:c0:32:34:cf:92:54:8a:ed:
         37:69:c1:37:bc:2b:c9:02:5c:8c:87:ac:d9:b8:09:62:c8:38:
         54:91:6f:e7:a2:5f:a7:90:13:9c:52:9b:84:a3:3b:64:ae:b1:
         7e:42:a3:a3:dc:9f:c8:30:f9:a5:a2:53:bd:8c:c2:a9:b0:8f:
         0d:39:f4:08:2a:d5:15:d9:31:ff:f3:13:c1:6a:7b:3c:5b:03:
         7a:ea:34:64:39:9a:31:cd:a1:6b:55:1f:7f:2f:b2:22:6d:25:
         9c:a4:4d:19:34:70:b2:c0:b0:eb:a7:c5:76:f7:90:75:cb:7f:
         b3:87:f1:5d:c9:34:f6:20:d2:71:4f:e1:27:e9:d2:6a:6d:a6:
         ab:63:47:30:f0:01:68:72:a6:40:0a:21:2d:2c:4e:61:1a:b0:
         84:5f:5e:a9:b8:51:64:27:7c:2f:35:e8:e1:87:3c:96:39:b5:
         cc:70:fa:17:2d:b9:83:38:4a:b8:0b:f6:91:59:26:ef:4f:af:
         22:7f:04:cf:0c:f4:15:dc:26:22:13:01:6f:8a:e6:9d:22:47:
         6d:a8:18:d5:78:3f:2a:fd:a6:41:02:db:35:c9:39:d2:95:0e:
         a5:4d:06:a4:84:33:a3:30:65:20:c3:be:b4:64:1c:9d:04:e8:
         7b:0a:7a:fb:5a:bd:db:9b:52:4a:66:40:66:02:75:f2:f8:92:
         1b:37:d3:63:84:55:aa:b5:81:aa:f5:94:24:43:91:98:0a:dc:
         bc:c6:ee:5d:52:22:d1:c2:b7:32:2a:bd:96:38:fa:f8:31:27:
         bc:d2:7b:45:ba:f8:7d:99:1d:5a:e7:87:8f:d5:bd:8a:25:a4:
         30:22:95:03:38:d4:b5:9f:82:39:dd:e1:6e:93:ef:65:c9:ba:
         61:cd:70:ab:f8:23:19:bd:58:ac:5e:c4:85:15:b8:b2:38:1a:
         38:7d:a4:82:56:cc:ca:72
-----BEGIN CERTIFICATE-----
MIIGQTCCBCmgAwIBAgIBATANBgkqhkiG9w0BAQsFADA+MQswCQYDVQQGEwJOTzEN
MAsGA1UECgwEQlNFUDEOMAwGA1UECwwFVGltIDIxEDAOBgNVBAMMB1RpbTIgQ0Ew
HhcNMjAwNjIwMTI0ODAwWhcNMjIwNjIwMTI0ODAwWjA9MQswCQYDVQQGEwJOTzEN
MAsGA1UECgwEQlNFUDEOMAwGA1UECwwFVGltIDIxDzANBgNVBAMMBmV1cmVrYTCC
AiIwDQYJKoZIhvcNAQEBBQADggIPADCCAgoCggIBAMaBNZZcrnSVP++w66HPp9O7
ASVwI3WgA7XnD5qOms700wJCe+MgM8x7v2+X/VE0nzP1K8R8RmFevFi40JSEXhBD
6kT5mHtcjln6EVa77J62bSII66kaW6iZxUjayC8HRFDAwqpB+XXiCEUFAm/b4bHb
UgRdKpmCKQ6TgVQ2a3TZUsrRBPwxsX5duwUJiID5jyr1erpkZVi4tvqJEdTYo/9t
O5soYeb5dfbEtAqvywvyb8J0WExLrIQwjF1yCDVjngcOHtogqaLIRkmPROq/m1fS
K+qqdmVFGvl7K9ji5CfXoFjRXDHNqigqs72HeAci2RpESM1gJxQwi3NJOlac4Sls
ibNuPG+G7xNvfs/H0IPBfxnCClPXgWSA2M1LteUI0fJrV2DVScnlNOu1MSGOLhGC
p26jJrnz1dIE4yGfJm92ObuOyAXLsrA+BfIT1Fliyn9ZYZ+mtPhmC/IVIK1K8lSz
pWbhB8xvtxl3SGumPVwpKUt7CuAlucYWjDkQclCWhprRaPbf0+LkgKKEDl290g5b
IoabNBsORzjIflOS82agaNI+BDQzpu9oJASc+U1SyRtLZCepdPYtaQoFYukNwUHp
a9Y/dCDcP+XmbimZ0InrqeQvlm/s9Y9Ebpc7QqWTx6TszJ+EzsX5VXJvdJ2DJXhJ
992gLragssT0RjEM/npXAgMBAAGjggFJMIIBRTAOBgNVHQ8BAf8EBAMCBaAwCQYD
VR0TBAIwADAdBgNVHSUEFjAUBggrBgEFBQcDAQYIKwYBBQUHAwIwHQYDVR0OBBYE
FJyM0Eo+wweuKOsb5Ei1ApXnp9tWMB8GA1UdIwQYMBaAFKvtJf5UADSfHauPT4kG
skhvBG1nMDgGCCsGAQUFBwEBBCwwKjAoBggrBgEFBQcwAoYcaHR0cC8vdGltMi54
d3MvY2EvdGxzLWNhLmNlcjAtBgNVHR8EJjAkMCKgIKAehhxodHRwLy90aW0yLnh3
cy9jYS90bHMtY2EuY3JsMGAGA1UdEQRZMFeCCHRpbTIueHdzghRob3N0LmRvY2tl
ci5pbnRlcm5hbIIJbG9jYWxob3N0ggZldXJla2GHBKwUAACHBBrOH8GHBAoAAg+H
BMCoAQeHBMCoYwGHBH8AAAEwDQYJKoZIhvcNAQELBQADggIBAMRcV0VxywdOQvEk
ZD/3hbzpalp686hs18Pfjf5R0URtPPUDPeIiVwDJH/bLg6SgxqnBDzwXQ2lqpwoF
27hVWKXKahwV156IB8zVmlq7LX7TO0Na9e1GcH5LZjDXIGh6ttjCNbvhcwO/J62+
K7bUl6fyXgXKJbTQI2xQkDO7mt0vB2rcCpxct13KiZin69EE7+/gpKB4cU6H2gzA
MjTPklSK7TdpwTe8K8kCXIyHrNm4CWLIOFSRb+eiX6eQE5xSm4SjO2SusX5Co6Pc
n8gw+aWiU72Mwqmwjw059Agq1RXZMf/zE8FqezxbA3rqNGQ5mjHNoWtVH38vsiJt
JZykTRk0cLLAsOunxXb3kHXLf7OH8V3JNPYg0nFP4Sfp0mptpqtjRzDwAWhypkAK
IS0sTmEasIRfXqm4UWQnfC816OGHPJY5tcxw+hctuYM4SrgL9pFZJu9PryJ/BM8M
9BXcJiITAW+K5p0iR22oGNV4Pyr9pkEC2zXJOdKVDqVNBqSEM6MwZSDDvrRkHJ0E
6HsKevtavdubUkpmQGYCdfL4khs302OEVaq1gar1lCRDkZgK3LzG7l1SItHCtzIq
vZY4+vgxJ7zSe0W6+H2ZHVrnh4/VvYolpDAilQM41LWfgjnd4W6T72XJumHNcKv4
Ixm9WKxexIUVuLI4Gjh9pIJWzMpy
-----END CERTIFICATE-----
