Certificate:
    Data:
        Version: 3 (0x2)
        Serial Number: 7 (0x7)
    Signature Algorithm: sha256WithRSAEncryption
        Issuer: C=NO, O=BSEP, OU=Tim 2, CN=Tim2 CA
        Validity
            Not Before: Jun 20 12:48:04 2020 GMT
            Not After : Jun 20 12:48:04 2022 GMT
        Subject: C=NO, O=BSEP, OU=Tim 2, CN=message
        Subject Public Key Info:
            Public Key Algorithm: rsaEncryption
                Public-Key: (4096 bit)
                Modulus:
                    00:bd:4e:aa:ae:8e:e5:4f:67:44:13:c0:d3:6d:18:
                    86:a9:ef:77:99:2f:3b:c9:2c:f4:0e:40:53:36:b8:
                    a7:64:f1:7c:7d:ca:0d:bf:17:b5:6d:f8:0c:28:d2:
                    8f:ce:4c:d4:92:21:aa:b9:7b:c9:19:a8:c6:83:ae:
                    f5:71:df:60:eb:95:d8:ed:a4:ed:e2:0b:25:84:38:
                    30:8f:da:e1:ec:0a:ad:3d:51:41:df:ac:21:11:92:
                    54:07:12:c5:91:37:69:b2:00:13:d8:1b:69:c9:9e:
                    71:fe:af:01:d3:67:3b:7a:0d:97:cb:31:26:1f:14:
                    3d:04:dc:8e:7f:96:e8:50:61:82:f3:ce:cc:ed:60:
                    9b:e1:6b:d9:a6:c9:14:2f:b1:1e:ce:2d:14:88:ef:
                    14:b4:53:97:dc:02:8b:4d:34:b2:37:f6:8c:8a:27:
                    a5:f2:60:d9:21:a3:76:eb:78:3f:f7:40:df:23:83:
                    68:60:b3:94:3e:e2:36:3d:c9:72:32:4d:12:85:5f:
                    e9:f4:2a:02:d8:8c:61:c2:c7:d6:86:fe:4b:77:13:
                    71:4b:79:c5:93:ab:2a:92:db:f9:c2:cc:2c:08:9b:
                    42:cc:c7:2e:63:75:df:fb:62:04:d5:f3:7d:a9:eb:
                    25:1b:2a:38:23:ce:9b:d1:94:b3:23:8d:36:9f:b7:
                    9d:2f:fa:65:22:16:91:8e:59:c3:7f:52:76:ae:4a:
                    28:d0:c8:6b:8a:92:c8:51:a2:28:b4:d1:37:17:f3:
                    03:56:65:ef:ba:92:1f:bb:d7:d6:92:15:28:22:95:
                    e2:0b:05:f4:0a:49:a2:cd:98:f3:5e:e4:6d:b3:93:
                    bf:71:77:78:ce:49:98:d1:b9:df:ad:a1:e1:cd:b6:
                    73:e2:74:af:12:76:f7:2c:c7:18:01:66:19:fb:f2:
                    c9:3f:80:78:b7:06:8a:55:f9:eb:02:9f:d7:88:5a:
                    05:79:a3:bd:08:db:d9:ea:cd:76:15:5c:97:ea:f0:
                    a6:dd:79:3c:80:6f:ac:18:0d:a4:e4:ba:83:21:f2:
                    09:fe:1e:e0:bb:14:49:6e:6e:f8:5a:7a:18:4d:c6:
                    5d:11:82:87:d6:d7:32:7c:88:f2:be:a3:69:9b:46:
                    a8:53:05:8f:0f:f1:af:5d:28:a8:d5:ee:b8:f5:8a:
                    18:e1:70:5f:25:22:2d:26:f8:9a:43:46:58:2a:f9:
                    f4:38:b1:c4:a9:1a:5d:9b:fb:5e:7e:77:21:05:bd:
                    51:05:b8:fc:71:ff:8f:7b:be:65:f3:6f:32:01:7e:
                    0c:ee:14:6e:66:ab:3a:2f:cf:2b:4c:99:45:83:d5:
                    36:9b:88:2b:ed:74:3e:3e:3e:25:dc:0a:ff:35:ed:
                    a8:de:33
                Exponent: 65537 (0x10001)
        X509v3 extensions:
            X509v3 Key Usage: critical
                Digital Signature, Key Encipherment
            X509v3 Basic Constraints: 
                CA:FALSE
            X509v3 Extended Key Usage: 
                TLS Web Server Authentication, TLS Web Client Authentication
            X509v3 Subject Key Identifier: 
                DE:64:6F:84:01:BD:46:52:7C:C6:A7:0A:91:42:94:97:1D:A0:AC:56
            X509v3 Authority Key Identifier: 
                keyid:AB:ED:25:FE:54:00:34:9F:1D:AB:8F:4F:89:06:B2:48:6F:04:6D:67

            Authority Information Access: 
                CA Issuers - URI:http//tim2.xws/ca/tls-ca.cer

            X509v3 CRL Distribution Points: 

                Full Name:
                  URI:http//tim2.xws/ca/tls-ca.crl

            X509v3 Subject Alternative Name: 
                DNS:tim2.xws, DNS:host.docker.internal, DNS:localhost, DNS:eureka, IP Address:172.20.0.0, IP Address:26.206.31.193, IP Address:10.0.2.15, IP Address:192.168.1.7, IP Address:192.168.99.1, IP Address:127.0.0.1
    Signature Algorithm: sha256WithRSAEncryption
         e3:e4:f3:88:92:e1:3a:39:fa:81:a1:5d:9b:6c:41:27:c6:32:
         58:d7:d5:e9:86:ce:c5:84:22:df:0e:73:dc:46:43:26:5d:09:
         1f:d0:c2:e4:19:cf:9d:05:dc:a8:60:bf:b5:fa:0d:cb:9e:31:
         d6:df:3a:db:94:e3:52:cd:ac:39:69:1b:ad:cc:55:1b:ed:37:
         2c:33:4a:8c:ba:64:bc:84:07:ce:f0:2a:74:25:33:e2:ff:40:
         74:0a:91:f5:d7:7d:0d:42:f9:77:7a:9b:0d:08:bd:3b:ec:1e:
         a1:f1:bd:59:75:59:b7:f7:fc:84:11:9f:d6:a9:d5:37:df:5e:
         15:45:24:1f:db:3a:bb:0a:01:16:31:72:5e:ec:ce:51:57:c5:
         cc:c6:52:82:e8:49:27:4e:b9:13:b3:76:a7:76:1a:8e:df:74:
         4d:5c:f5:17:63:a3:09:30:bf:b1:8b:27:3d:22:c1:ee:5f:42:
         e2:32:14:38:7b:95:16:f3:05:89:8d:39:b4:33:ec:44:f9:75:
         07:2d:ab:2d:34:ee:81:98:ac:ad:9d:3a:76:58:86:62:ca:6c:
         5b:2b:83:fc:f2:85:86:de:b6:47:3c:d1:0f:aa:00:f5:d5:11:
         c1:e7:ac:a7:64:79:71:32:8e:e7:9f:da:91:9b:4b:a0:fe:07:
         55:b4:6c:bc:49:10:dc:11:6c:da:66:a7:00:18:6b:81:cd:1b:
         61:fb:a2:70:be:10:be:05:ba:a2:a9:c8:cd:c1:24:63:95:fb:
         a3:3b:cf:78:f2:d4:38:34:35:38:ce:01:7c:a1:40:10:8b:ca:
         c2:58:f6:43:4a:76:de:65:9f:61:96:28:da:d8:b2:8d:65:00:
         c4:6c:14:28:e3:ee:44:5a:91:96:6e:e1:d7:8d:27:58:8f:71:
         87:3e:30:89:03:c2:e4:59:bb:20:c1:da:24:9f:cc:31:40:ea:
         9e:bd:52:34:d6:4a:bd:ee:43:f3:e6:b0:a0:5c:a6:28:ad:50:
         2f:9a:8c:eb:94:de:15:8f:bd:ca:84:e2:45:f1:19:79:3c:b4:
         00:03:1d:54:d6:75:9f:a4:57:0e:24:06:fb:1d:bd:8a:f9:76:
         3d:44:2e:9e:cf:70:11:f1:61:e7:5b:67:38:9e:68:f4:aa:ce:
         9b:ea:da:d0:c9:20:45:30:26:f7:db:09:4b:36:d0:b0:a1:fb:
         4b:3f:ec:6e:ca:a5:3c:e5:9c:21:58:a3:e1:7b:44:7c:69:00:
         8c:3a:4b:4d:ea:b6:71:d9:05:b7:c4:9e:fb:66:c4:64:6e:4f:
         d5:c6:52:8a:1a:8b:d5:96:93:6c:eb:ba:4a:7a:15:51:b5:c8:
         35:14:b2:4b:23:b9:04:01
-----BEGIN CERTIFICATE-----
MIIGQjCCBCqgAwIBAgIBBzANBgkqhkiG9w0BAQsFADA+MQswCQYDVQQGEwJOTzEN
MAsGA1UECgwEQlNFUDEOMAwGA1UECwwFVGltIDIxEDAOBgNVBAMMB1RpbTIgQ0Ew
HhcNMjAwNjIwMTI0ODA0WhcNMjIwNjIwMTI0ODA0WjA+MQswCQYDVQQGEwJOTzEN
MAsGA1UECgwEQlNFUDEOMAwGA1UECwwFVGltIDIxEDAOBgNVBAMMB21lc3NhZ2Uw
ggIiMA0GCSqGSIb3DQEBAQUAA4ICDwAwggIKAoICAQC9TqqujuVPZ0QTwNNtGIap
73eZLzvJLPQOQFM2uKdk8Xx9yg2/F7Vt+Awo0o/OTNSSIaq5e8kZqMaDrvVx32Dr
ldjtpO3iCyWEODCP2uHsCq09UUHfrCERklQHEsWRN2myABPYG2nJnnH+rwHTZzt6
DZfLMSYfFD0E3I5/luhQYYLzzsztYJvha9mmyRQvsR7OLRSI7xS0U5fcAotNNLI3
9oyKJ6XyYNkho3breD/3QN8jg2hgs5Q+4jY9yXIyTRKFX+n0KgLYjGHCx9aG/kt3
E3FLecWTqyqS2/nCzCwIm0LMxy5jdd/7YgTV832p6yUbKjgjzpvRlLMjjTaft50v
+mUiFpGOWcN/UnauSijQyGuKkshRoii00TcX8wNWZe+6kh+719aSFSgileILBfQK
SaLNmPNe5G2zk79xd3jOSZjRud+toeHNtnPidK8SdvcsxxgBZhn78sk/gHi3BopV
+esCn9eIWgV5o70I29nqzXYVXJfq8KbdeTyAb6wYDaTkuoMh8gn+HuC7FElubvha
ehhNxl0RgofW1zJ8iPK+o2mbRqhTBY8P8a9dKKjV7rj1ihjhcF8lIi0m+JpDRlgq
+fQ4scSpGl2b+15+dyEFvVEFuPxx/497vmXzbzIBfgzuFG5mqzovzytMmUWD1Tab
iCvtdD4+PiXcCv817ajeMwIDAQABo4IBSTCCAUUwDgYDVR0PAQH/BAQDAgWgMAkG
A1UdEwQCMAAwHQYDVR0lBBYwFAYIKwYBBQUHAwEGCCsGAQUFBwMCMB0GA1UdDgQW
BBTeZG+EAb1GUnzGpwqRQpSXHaCsVjAfBgNVHSMEGDAWgBSr7SX+VAA0nx2rj0+J
BrJIbwRtZzA4BggrBgEFBQcBAQQsMCowKAYIKwYBBQUHMAKGHGh0dHAvL3RpbTIu
eHdzL2NhL3Rscy1jYS5jZXIwLQYDVR0fBCYwJDAioCCgHoYcaHR0cC8vdGltMi54
d3MvY2EvdGxzLWNhLmNybDBgBgNVHREEWTBXggh0aW0yLnh3c4IUaG9zdC5kb2Nr
ZXIuaW50ZXJuYWyCCWxvY2FsaG9zdIIGZXVyZWthhwSsFAAAhwQazh/BhwQKAAIP
hwTAqAEHhwTAqGMBhwR/AAABMA0GCSqGSIb3DQEBCwUAA4ICAQDj5POIkuE6OfqB
oV2bbEEnxjJY19Xphs7FhCLfDnPcRkMmXQkf0MLkGc+dBdyoYL+1+g3LnjHW3zrb
lONSzaw5aRutzFUb7TcsM0qMumS8hAfO8Cp0JTPi/0B0CpH1130NQvl3epsNCL07
7B6h8b1ZdVm39/yEEZ/WqdU3314VRSQf2zq7CgEWMXJe7M5RV8XMxlKC6EknTrkT
s3andhqO33RNXPUXY6MJML+xiyc9IsHuX0LiMhQ4e5UW8wWJjTm0M+xE+XUHLast
NO6BmKytnTp2WIZiymxbK4P88oWG3rZHPNEPqgD11RHB56ynZHlxMo7nn9qRm0ug
/gdVtGy8SRDcEWzaZqcAGGuBzRth+6JwvhC+BbqiqcjNwSRjlfujO8948tQ4NDU4
zgF8oUAQi8rCWPZDSnbeZZ9hlija2LKNZQDEbBQo4+5EWpGWbuHXjSdYj3GHPjCJ
A8LkWbsgwdokn8wxQOqevVI01kq97kPz5rCgXKYorVAvmozrlN4Vj73KhOJF8Rl5
PLQAAx1U1nWfpFcOJAb7Hb2K+XY9RC6ez3AR8WHnW2c4nmj0qs6b6trQySBFMCb3
2wlLNtCwoftLP+xuyqU85ZwhWKPhe0R8aQCMOktN6rZx2QW3xJ77ZsRkbk/VxlKK
GovVlpNs67pKehVRtcg1FLJLI7kEAQ==
-----END CERTIFICATE-----
