Certificate:
    Data:
        Version: 3 (0x2)
        Serial Number: 3 (0x3)
    Signature Algorithm: sha256WithRSAEncryption
        Issuer: C=NO, O=BSEP, OU=Tim 2, CN=Tim2 CA
        Validity
            Not Before: Jun 26 09:26:08 2020 GMT
            Not After : Jun 26 09:26:08 2022 GMT
        Subject: C=NO, O=BSEP, OU=Tim 2, CN=logan
        Subject Public Key Info:
            Public Key Algorithm: rsaEncryption
                Public-Key: (4096 bit)
                Modulus:
                    00:c7:ef:67:63:ea:55:e6:95:b4:8e:ba:96:b4:a1:
                    d5:85:a4:b0:e1:27:08:99:d3:40:71:7a:d7:cd:ea:
                    97:7f:79:f7:6d:6f:69:a7:35:89:4f:f8:19:e0:01:
                    6e:a6:76:0b:b6:5a:73:15:cb:84:a4:0c:31:30:81:
                    ef:a6:7e:8d:52:57:61:59:1f:33:44:8f:7c:c3:e7:
                    6c:7a:15:72:7e:6a:82:c8:5b:4a:09:31:23:50:02:
                    fe:93:7e:40:24:cd:16:c8:ac:76:db:fb:71:6c:50:
                    bd:49:73:7c:5e:79:92:b2:f4:02:1a:ce:f4:18:d9:
                    b0:c1:42:a7:bc:c0:41:81:84:65:12:28:00:a0:04:
                    1d:a8:f9:df:4a:f6:ca:f4:49:09:cf:0d:10:7d:7c:
                    80:0b:ce:74:b3:e4:4a:fd:5b:54:3c:6b:f5:d6:bf:
                    dd:28:a2:eb:24:2f:eb:21:80:55:69:5c:4d:04:cb:
                    46:e4:8d:4b:ac:63:b6:7a:f6:90:8e:b1:eb:f1:a2:
                    98:cf:ae:33:41:e8:11:b1:7b:0d:bd:60:d9:f6:3d:
                    34:81:d8:11:11:f4:77:1d:37:4f:60:b2:84:d7:9d:
                    7c:e9:5e:bd:3b:9a:67:2c:c8:1b:34:89:36:30:0e:
                    03:83:05:86:56:57:4b:9a:45:9b:51:e0:70:ea:ef:
                    33:29:20:b1:71:35:23:1c:24:a2:73:df:b3:cc:82:
                    90:53:35:bc:bf:d3:b8:4e:af:da:a0:71:8a:0c:01:
                    e2:d7:ce:96:d7:fe:f3:d3:4d:f7:db:9a:fc:27:3c:
                    3b:37:84:49:51:27:cc:e2:28:0a:a5:3b:d0:6e:6b:
                    ae:65:5f:39:16:0d:8d:89:4f:16:9e:9e:c9:9a:d9:
                    0e:9f:58:29:e4:c1:21:11:1d:6b:82:80:c9:2d:09:
                    4a:a5:9c:8c:ab:d7:77:e2:13:f8:08:9f:90:1d:45:
                    03:e0:b0:34:76:7b:af:a0:86:de:f1:11:c0:e4:90:
                    c8:5b:6e:15:81:34:92:eb:77:ac:9c:43:ce:8d:7a:
                    1f:4e:74:5b:7b:2b:eb:ae:42:db:0e:f9:77:19:2a:
                    80:c2:84:7f:56:6a:dc:1d:70:d4:bf:79:8b:16:b8:
                    d5:a6:51:e9:0e:75:56:88:91:d3:e5:63:f7:94:24:
                    01:4f:c1:49:3b:d1:a2:70:9d:29:2f:af:d5:00:a6:
                    d0:c7:44:4a:aa:b4:a3:48:6c:a9:9d:dc:33:72:60:
                    66:e8:eb:cf:72:e9:da:5b:8a:0d:8c:a7:bf:4d:65:
                    28:5e:37:61:17:96:84:de:ea:9b:4a:ff:a1:3d:83:
                    ed:84:9c:51:4d:6d:5f:33:e4:06:88:93:41:35:ec:
                    4b:99:fb
                Exponent: 65537 (0x10001)
        X509v3 extensions:
            X509v3 Key Usage: critical
                Digital Signature, Key Encipherment
            X509v3 Basic Constraints: 
                CA:FALSE
            X509v3 Extended Key Usage: 
                TLS Web Server Authentication, TLS Web Client Authentication
            X509v3 Subject Key Identifier: 
                C4:73:D2:F6:3B:7E:AF:A4:D5:EF:2D:79:B5:20:ED:7D:AC:46:AF:0F
            X509v3 Authority Key Identifier: 
                keyid:A3:9D:5A:C1:DA:0D:64:9E:55:C0:B0:1A:51:4C:0D:D9:71:3C:E3:96

            Authority Information Access: 
                CA Issuers - URI:http//tim2.xws/ca/tls-ca.cer

            X509v3 CRL Distribution Points: 

                Full Name:
                  URI:http//tim2.xws/ca/tls-ca.crl

            X509v3 Subject Alternative Name: 
                DNS:tim2.xws, DNS:host.docker.internal, DNS:localhost, DNS:eureka, IP Address:172.20.0.0, IP Address:26.206.31.193, IP Address:10.0.2.15, IP Address:192.168.1.7, IP Address:192.168.99.1, IP Address:127.0.0.1
    Signature Algorithm: sha256WithRSAEncryption
         58:f0:88:43:63:95:09:51:30:7f:4f:5f:87:56:85:74:a8:f0:
         57:c4:27:af:3c:17:26:4c:04:f0:f8:16:f5:a5:ca:9f:60:1b:
         f7:26:ce:2f:24:28:35:00:04:ea:c7:86:fc:8c:6b:93:c7:e8:
         f6:7c:ff:13:7f:62:4a:52:63:59:e8:56:35:69:47:e1:48:93:
         19:29:b2:ec:9e:0f:ac:7d:e4:25:b5:82:4d:4c:a5:27:9a:dd:
         de:16:da:d8:06:3a:5f:ab:03:bc:13:0d:35:cc:2a:2b:4f:d8:
         5e:93:d1:fe:d4:09:fb:a5:17:c1:68:b7:76:e5:22:8b:5b:be:
         a9:c1:fb:4e:1a:49:6a:5b:7b:89:da:26:ca:3a:f2:ab:d2:68:
         b3:37:c1:ef:18:fb:d3:cc:4b:b4:94:8b:26:59:07:03:4c:4b:
         1f:7a:6a:7e:39:6f:d4:b3:e2:8c:d7:8b:e4:03:f6:b9:54:62:
         e0:55:84:fb:42:b7:4a:00:49:81:b6:0b:80:c3:42:57:60:76:
         ae:5d:5d:57:68:83:70:8a:c0:59:0f:02:b4:20:65:72:3e:d4:
         b3:02:2a:ef:c9:99:a5:f6:8c:93:b5:fe:5c:42:59:45:c0:98:
         45:cd:3a:7a:75:5c:9b:5d:c4:8d:a7:1f:bd:af:f9:74:31:a0:
         16:33:42:c9:4f:46:7e:2b:ca:cc:0e:f3:5e:7f:ce:2e:64:cd:
         d1:ac:66:3a:f8:24:bf:91:f5:ed:90:4e:e8:96:4e:02:69:98:
         62:d4:b7:82:da:c1:29:4e:b9:b6:03:3c:88:8e:d2:fc:f3:0a:
         f8:f7:20:d5:e8:11:ca:6b:ef:a6:89:0f:64:a5:9f:da:de:05:
         11:74:55:10:2a:18:8c:34:0b:c0:36:75:c3:93:ad:f8:14:b8:
         3f:d2:d9:9f:96:1e:bf:1f:3d:c6:b5:41:d3:89:e9:62:bf:07:
         78:42:1f:8b:d6:8d:87:aa:22:f2:19:d5:9d:fe:9d:44:b2:4f:
         24:74:bf:eb:d8:4b:5b:8f:c0:98:19:e6:2c:24:8e:19:e4:6c:
         81:10:b6:61:6e:07:ff:02:8d:b9:18:f0:0a:0b:87:e3:82:5a:
         4a:a5:30:71:e3:1c:04:6b:c2:89:a3:49:9a:c7:f6:9b:f9:f1:
         2c:13:6c:17:36:c5:83:4d:a4:ba:52:7e:0c:a4:d2:8d:05:5b:
         cf:2d:3a:a5:4f:b7:6a:aa:0c:3e:d3:49:84:a7:bf:68:51:b2:
         e6:68:88:70:95:a6:38:52:e2:f9:ab:34:2a:3d:75:32:f3:83:
         0f:97:75:16:a5:72:f4:05:ac:fd:b9:9c:3b:4a:e9:af:09:53:
         de:a2:05:53:19:ed:b3:bb
-----BEGIN CERTIFICATE-----
MIIGQDCCBCigAwIBAgIBAzANBgkqhkiG9w0BAQsFADA+MQswCQYDVQQGEwJOTzEN
MAsGA1UECgwEQlNFUDEOMAwGA1UECwwFVGltIDIxEDAOBgNVBAMMB1RpbTIgQ0Ew
HhcNMjAwNjI2MDkyNjA4WhcNMjIwNjI2MDkyNjA4WjA8MQswCQYDVQQGEwJOTzEN
MAsGA1UECgwEQlNFUDEOMAwGA1UECwwFVGltIDIxDjAMBgNVBAMMBWxvZ2FuMIIC
IjANBgkqhkiG9w0BAQEFAAOCAg8AMIICCgKCAgEAx+9nY+pV5pW0jrqWtKHVhaSw
4ScImdNAcXrXzeqXf3n3bW9ppzWJT/gZ4AFupnYLtlpzFcuEpAwxMIHvpn6NUldh
WR8zRI98w+dsehVyfmqCyFtKCTEjUAL+k35AJM0WyKx22/txbFC9SXN8XnmSsvQC
Gs70GNmwwUKnvMBBgYRlEigAoAQdqPnfSvbK9EkJzw0QfXyAC850s+RK/VtUPGv1
1r/dKKLrJC/rIYBVaVxNBMtG5I1LrGO2evaQjrHr8aKYz64zQegRsXsNvWDZ9j00
gdgREfR3HTdPYLKE15186V69O5pnLMgbNIk2MA4DgwWGVldLmkWbUeBw6u8zKSCx
cTUjHCSic9+zzIKQUzW8v9O4Tq/aoHGKDAHi186W1/7z003325r8Jzw7N4RJUSfM
4igKpTvQbmuuZV85Fg2NiU8Wnp7JmtkOn1gp5MEhER1rgoDJLQlKpZyMq9d34hP4
CJ+QHUUD4LA0dnuvoIbe8RHA5JDIW24VgTSS63esnEPOjXofTnRbeyvrrkLbDvl3
GSqAwoR/VmrcHXDUv3mLFrjVplHpDnVWiJHT5WP3lCQBT8FJO9GicJ0pL6/VAKbQ
x0RKqrSjSGypndwzcmBm6OvPcunaW4oNjKe/TWUoXjdhF5aE3uqbSv+hPYPthJxR
TW1fM+QGiJNBNexLmfsCAwEAAaOCAUkwggFFMA4GA1UdDwEB/wQEAwIFoDAJBgNV
HRMEAjAAMB0GA1UdJQQWMBQGCCsGAQUFBwMBBggrBgEFBQcDAjAdBgNVHQ4EFgQU
xHPS9jt+r6TV7y15tSDtfaxGrw8wHwYDVR0jBBgwFoAUo51awdoNZJ5VwLAaUUwN
2XE845YwOAYIKwYBBQUHAQEELDAqMCgGCCsGAQUFBzAChhxodHRwLy90aW0yLnh3
cy9jYS90bHMtY2EuY2VyMC0GA1UdHwQmMCQwIqAgoB6GHGh0dHAvL3RpbTIueHdz
L2NhL3Rscy1jYS5jcmwwYAYDVR0RBFkwV4IIdGltMi54d3OCFGhvc3QuZG9ja2Vy
LmludGVybmFsgglsb2NhbGhvc3SCBmV1cmVrYYcErBQAAIcEGs4fwYcECgACD4cE
wKgBB4cEwKhjAYcEfwAAATANBgkqhkiG9w0BAQsFAAOCAgEAWPCIQ2OVCVEwf09f
h1aFdKjwV8QnrzwXJkwE8PgW9aXKn2Ab9ybOLyQoNQAE6seG/Ixrk8fo9nz/E39i
SlJjWehWNWlH4UiTGSmy7J4PrH3kJbWCTUylJ5rd3hba2AY6X6sDvBMNNcwqK0/Y
XpPR/tQJ+6UXwWi3duUii1u+qcH7ThpJalt7idomyjryq9JoszfB7xj708xLtJSL
JlkHA0xLH3pqfjlv1LPijNeL5AP2uVRi4FWE+0K3SgBJgbYLgMNCV2B2rl1dV2iD
cIrAWQ8CtCBlcj7UswIq78mZpfaMk7X+XEJZRcCYRc06enVcm13Ejacfva/5dDGg
FjNCyU9GfivKzA7zXn/OLmTN0axmOvgkv5H17ZBO6JZOAmmYYtS3gtrBKU65tgM8
iI7S/PMK+Pcg1egRymvvpokPZKWf2t4FEXRVECoYjDQLwDZ1w5Ot+BS4P9LZn5Ye
vx89xrVB04npYr8HeEIfi9aNh6oi8hnVnf6dRLJPJHS/69hLW4/AmBnmLCSOGeRs
gRC2YW4H/wKNuRjwCguH44JaSqUwceMcBGvCiaNJmsf2m/nxLBNsFzbFg02kulJ+
DKTSjQVbzy06pU+3aqoMPtNJhKe/aFGy5miIcJWmOFLi+as0Kj11MvODD5d1FqVy
9AWs/bmcO0rprwlT3qIFUxnts7s=
-----END CERTIFICATE-----
