Certificate:
    Data:
        Version: 3 (0x2)
        Serial Number: 5 (0x5)
    Signature Algorithm: sha256WithRSAEncryption
        Issuer: C=NO, O=BSEP, OU=Tim 2, CN=Tim2 CA
        Validity
            Not Before: Jun 20 12:48:03 2020 GMT
            Not After : Jun 20 12:48:03 2022 GMT
        Subject: C=NO, O=BSEP, OU=Tim 2, CN=auth
        Subject Public Key Info:
            Public Key Algorithm: rsaEncryption
                Public-Key: (4096 bit)
                Modulus:
                    00:9d:88:1f:01:55:51:4f:80:dd:ea:50:74:9a:92:
                    ea:89:35:40:db:9a:a3:ea:43:f5:3a:86:48:9f:43:
                    fb:28:f4:3b:de:97:3c:92:4c:e4:78:6a:0f:1c:d5:
                    8b:ed:1f:21:cc:6b:2e:e7:1c:85:d7:93:20:bf:d5:
                    49:29:ea:77:87:33:3b:34:8d:59:55:00:ec:81:be:
                    ec:61:c3:c4:3b:49:26:0e:65:07:8e:9b:a8:54:35:
                    ee:b7:09:50:93:9e:5d:05:da:1c:e8:c6:e2:73:ec:
                    58:b6:bf:94:5e:c3:9a:b1:83:25:fc:2b:64:68:3f:
                    82:76:29:32:aa:5d:a0:1e:2e:6e:74:df:d8:c5:6e:
                    26:76:88:56:60:48:55:6e:67:c4:69:f4:33:ab:0f:
                    d9:35:a8:c2:b5:14:7b:a0:10:b5:98:ae:09:31:bd:
                    84:53:17:b7:25:c8:0a:bf:a3:73:8d:55:f6:0e:fd:
                    91:00:2c:f1:40:5b:53:78:8a:6b:3a:ff:a3:f5:11:
                    52:8c:b1:f5:bd:1a:69:94:cc:80:65:b2:4f:09:b2:
                    ec:18:e9:52:2b:3e:c6:03:b4:9c:3f:51:95:9a:7a:
                    ea:38:c1:86:b0:fc:ec:6c:02:9c:4a:95:5f:0f:59:
                    68:61:60:62:d2:a8:16:ea:a4:d0:d5:79:31:9a:45:
                    d6:fe:e5:7c:50:14:44:fe:e5:76:2f:06:33:ef:50:
                    96:8d:cf:48:6a:7e:02:69:6e:a6:ea:d0:98:d6:77:
                    74:cc:4a:38:03:77:e4:e3:38:d8:a7:7a:b5:03:6e:
                    59:6e:7f:26:dc:58:d8:5b:7a:a8:9f:c9:ff:6b:4b:
                    75:f3:70:28:46:dc:8a:fa:fd:ac:ea:bf:ee:ae:5d:
                    65:a6:5d:97:6f:31:40:cf:2b:62:ef:fa:6c:11:2f:
                    90:50:ae:98:1e:f4:8c:d5:63:a7:8f:50:54:57:dc:
                    bb:89:12:41:4d:aa:41:d8:68:4e:a1:8d:b2:1d:cb:
                    2c:86:30:a7:a4:f4:94:02:a5:5f:ff:c7:a5:9d:f9:
                    77:c2:73:b1:d1:c4:fb:6f:c8:7b:b9:fc:12:ff:c3:
                    55:8e:86:f0:4b:f7:27:5c:aa:ba:d5:f1:2e:55:af:
                    f9:44:4f:d4:07:31:d2:2e:ce:8e:2a:28:87:ea:eb:
                    6d:f4:da:8e:98:54:cc:05:2a:39:59:b0:91:aa:a0:
                    26:1c:e6:4a:46:1d:18:20:18:6b:51:ba:8b:0c:50:
                    4e:68:db:92:7a:24:43:73:a6:ca:b0:c1:1c:2c:fd:
                    78:e7:29:73:37:65:15:0b:a7:af:d7:83:39:b8:09:
                    01:08:99:c9:8a:c7:b5:b3:85:25:f8:3a:7c:61:22:
                    39:f2:b9
                Exponent: 65537 (0x10001)
        X509v3 extensions:
            X509v3 Key Usage: critical
                Digital Signature, Key Encipherment
            X509v3 Basic Constraints: 
                CA:FALSE
            X509v3 Extended Key Usage: 
                TLS Web Server Authentication, TLS Web Client Authentication
            X509v3 Subject Key Identifier: 
                75:36:19:A7:AB:92:49:90:B9:40:68:32:3B:AE:A3:9C:96:5F:6B:DB
            X509v3 Authority Key Identifier: 
                keyid:AB:ED:25:FE:54:00:34:9F:1D:AB:8F:4F:89:06:B2:48:6F:04:6D:67

            Authority Information Access: 
                CA Issuers - URI:http//tim2.xws/ca/tls-ca.cer

            X509v3 CRL Distribution Points: 

                Full Name:
                  URI:http//tim2.xws/ca/tls-ca.crl

            X509v3 Subject Alternative Name: 
                DNS:tim2.xws, DNS:host.docker.internal, DNS:localhost, DNS:eureka, IP Address:172.20.0.0, IP Address:26.206.31.193, IP Address:10.0.2.15, IP Address:192.168.1.7, IP Address:192.168.99.1, IP Address:127.0.0.1
    Signature Algorithm: sha256WithRSAEncryption
         93:84:77:f2:7e:d5:0b:5d:b9:73:95:18:c7:12:42:6d:f5:b8:
         ec:e3:f4:46:83:df:6e:9f:42:f2:30:d3:f0:d2:68:88:df:d6:
         a2:04:98:fe:70:a1:8c:f7:cf:ee:b4:ef:7e:6f:d0:38:6e:72:
         a0:e0:25:e6:c5:9b:71:3e:16:b6:d6:31:9f:7b:1f:78:81:9e:
         90:44:e9:25:30:9f:23:e9:e6:82:20:9f:57:7b:61:ab:ad:98:
         ff:ca:16:7a:25:e1:28:51:9a:9a:25:e0:48:d7:63:3a:64:19:
         af:43:b3:00:23:08:d5:14:3f:3f:22:8f:31:a3:04:cc:c3:4b:
         e7:d1:7e:a1:e2:be:35:f5:c1:ad:78:6b:2b:ff:98:54:a1:76:
         61:5e:ff:a8:46:f8:9b:57:ca:c1:81:f0:cb:52:e7:69:01:b2:
         f9:77:45:71:55:59:74:30:ab:a6:92:0d:e5:b6:4b:23:44:46:
         41:cf:02:20:ad:5b:7f:42:15:25:5d:e1:cb:f8:ec:89:3d:4f:
         68:88:1b:38:c9:05:8b:48:d0:aa:f5:2a:fb:c4:81:1b:65:73:
         6b:a9:27:4c:9e:15:b1:8c:ac:cb:06:43:05:08:70:a2:21:36:
         c8:44:ee:db:9c:b6:32:d7:b1:4b:5b:0e:0d:05:d7:bd:a6:67:
         9a:11:2a:ce:f3:ed:5f:35:31:10:84:be:06:5a:71:16:1d:f5:
         a2:00:7b:46:66:19:8f:3b:5f:fa:97:4d:7c:63:80:0d:96:c5:
         46:7c:2d:02:d4:aa:81:82:ee:9f:c9:7f:4a:73:ad:10:69:41:
         96:35:52:16:80:55:1b:4a:d5:43:fd:d6:2e:bb:66:56:ab:88:
         e0:56:fc:b0:3f:f7:30:7e:32:f8:1f:8f:fe:8d:ae:00:f8:85:
         42:fd:3a:88:64:05:11:72:c4:4c:04:14:cb:0a:6c:87:68:11:
         21:13:d9:17:55:d6:a0:f9:07:bc:57:02:72:a6:81:84:68:a0:
         20:25:d8:4f:f9:95:a2:dd:57:f1:39:42:ba:0a:2d:ba:5c:57:
         58:3f:f5:4b:9e:83:24:d7:00:a9:ce:4f:29:e0:b9:62:a7:18:
         15:ec:7d:1f:7e:4e:c1:2d:65:92:8c:de:af:e8:82:6f:20:e6:
         d6:87:72:e9:03:b1:86:9b:bb:82:be:e7:d8:f1:13:67:01:07:
         d9:cd:79:ee:9f:22:3c:10:40:4c:42:63:2c:3f:a1:89:37:cb:
         63:b7:41:6a:e5:52:3e:b8:1a:ad:e9:7a:22:a0:2b:e9:5d:b2:
         26:94:1c:f5:42:53:e5:0a:44:9a:c8:c5:e0:bc:2a:cf:fb:09:
         cd:86:a7:db:ba:4c:d3:1a
-----BEGIN CERTIFICATE-----
MIIGPzCCBCegAwIBAgIBBTANBgkqhkiG9w0BAQsFADA+MQswCQYDVQQGEwJOTzEN
MAsGA1UECgwEQlNFUDEOMAwGA1UECwwFVGltIDIxEDAOBgNVBAMMB1RpbTIgQ0Ew
HhcNMjAwNjIwMTI0ODAzWhcNMjIwNjIwMTI0ODAzWjA7MQswCQYDVQQGEwJOTzEN
MAsGA1UECgwEQlNFUDEOMAwGA1UECwwFVGltIDIxDTALBgNVBAMMBGF1dGgwggIi
MA0GCSqGSIb3DQEBAQUAA4ICDwAwggIKAoICAQCdiB8BVVFPgN3qUHSakuqJNUDb
mqPqQ/U6hkifQ/so9DvelzySTOR4ag8c1YvtHyHMay7nHIXXkyC/1Ukp6neHMzs0
jVlVAOyBvuxhw8Q7SSYOZQeOm6hUNe63CVCTnl0F2hzoxuJz7Fi2v5Rew5qxgyX8
K2RoP4J2KTKqXaAeLm5039jFbiZ2iFZgSFVuZ8Rp9DOrD9k1qMK1FHugELWYrgkx
vYRTF7clyAq/o3ONVfYO/ZEALPFAW1N4ims6/6P1EVKMsfW9GmmUzIBlsk8JsuwY
6VIrPsYDtJw/UZWaeuo4wYaw/OxsApxKlV8PWWhhYGLSqBbqpNDVeTGaRdb+5XxQ
FET+5XYvBjPvUJaNz0hqfgJpbqbq0JjWd3TMSjgDd+TjONinerUDbllufybcWNhb
eqifyf9rS3XzcChG3Ir6/azqv+6uXWWmXZdvMUDPK2Lv+mwRL5BQrpge9IzVY6eP
UFRX3LuJEkFNqkHYaE6hjbIdyyyGMKek9JQCpV//x6Wd+XfCc7HRxPtvyHu5/BL/
w1WOhvBL9ydcqrrV8S5Vr/lET9QHMdIuzo4qKIfq62302o6YVMwFKjlZsJGqoCYc
5kpGHRggGGtRuosMUE5o25J6JENzpsqwwRws/XjnKXM3ZRULp6/Xgzm4CQEImcmK
x7WzhSX4OnxhIjnyuQIDAQABo4IBSTCCAUUwDgYDVR0PAQH/BAQDAgWgMAkGA1Ud
EwQCMAAwHQYDVR0lBBYwFAYIKwYBBQUHAwEGCCsGAQUFBwMCMB0GA1UdDgQWBBR1
Nhmnq5JJkLlAaDI7rqOcll9r2zAfBgNVHSMEGDAWgBSr7SX+VAA0nx2rj0+JBrJI
bwRtZzA4BggrBgEFBQcBAQQsMCowKAYIKwYBBQUHMAKGHGh0dHAvL3RpbTIueHdz
L2NhL3Rscy1jYS5jZXIwLQYDVR0fBCYwJDAioCCgHoYcaHR0cC8vdGltMi54d3Mv
Y2EvdGxzLWNhLmNybDBgBgNVHREEWTBXggh0aW0yLnh3c4IUaG9zdC5kb2NrZXIu
aW50ZXJuYWyCCWxvY2FsaG9zdIIGZXVyZWthhwSsFAAAhwQazh/BhwQKAAIPhwTA
qAEHhwTAqGMBhwR/AAABMA0GCSqGSIb3DQEBCwUAA4ICAQCThHfyftULXblzlRjH
EkJt9bjs4/RGg99un0LyMNPw0miI39aiBJj+cKGM98/utO9+b9A4bnKg4CXmxZtx
Pha21jGfex94gZ6QROklMJ8j6eaCIJ9Xe2GrrZj/yhZ6JeEoUZqaJeBI12M6ZBmv
Q7MAIwjVFD8/Io8xowTMw0vn0X6h4r419cGteGsr/5hUoXZhXv+oRvibV8rBgfDL
UudpAbL5d0VxVVl0MKumkg3ltksjREZBzwIgrVt/QhUlXeHL+OyJPU9oiBs4yQWL
SNCq9Sr7xIEbZXNrqSdMnhWxjKzLBkMFCHCiITbIRO7bnLYy17FLWw4NBde9pmea
ESrO8+1fNTEQhL4GWnEWHfWiAHtGZhmPO1/6l018Y4ANlsVGfC0C1KqBgu6fyX9K
c60QaUGWNVIWgFUbStVD/dYuu2ZWq4jgVvywP/cwfjL4H4/+ja4A+IVC/TqIZAUR
csRMBBTLCmyHaBEhE9kXVdag+Qe8VwJypoGEaKAgJdhP+ZWi3VfxOUK6Ci26XFdY
P/VLnoMk1wCpzk8p4LlipxgV7H0ffk7BLWWSjN6v6IJvIObWh3LpA7GGm7uCvufY
8RNnAQfZzXnunyI8EEBMQmMsP6GJN8tjt0Fq5VI+uBqt6XoioCvpXbImlBz1QlPl
CkSayMXgvCrP+wnNhqfbukzTGg==
-----END CERTIFICATE-----
