Certificate:
    Data:
        Version: 3 (0x2)
        Serial Number: 6 (0x6)
    Signature Algorithm: sha256WithRSAEncryption
        Issuer: C=NO, O=BSEP, OU=Tim 2, CN=Tim2 CA
        Validity
            Not Before: Jun 26 09:26:13 2020 GMT
            Not After : Jun 26 09:26:13 2022 GMT
        Subject: C=NO, O=BSEP, OU=Tim 2, CN=auth
        Subject Public Key Info:
            Public Key Algorithm: rsaEncryption
                Public-Key: (4096 bit)
                Modulus:
                    00:b8:b1:93:c8:11:d0:94:0f:23:5a:22:2f:d9:36:
                    0b:9a:4b:0d:ab:ef:f6:14:89:88:23:3f:28:28:bb:
                    a6:a9:70:8a:d5:2f:33:2c:0b:d4:23:c0:cb:76:d8:
                    10:2e:8c:12:2a:4f:1b:06:8e:f7:ae:37:dd:af:25:
                    c3:d8:58:c1:3d:b1:16:8e:61:f4:14:b1:b9:35:7c:
                    1d:26:55:5f:57:08:b9:20:c3:3b:e5:c5:f8:b4:b8:
                    82:ac:bf:80:2e:93:ba:85:9f:8d:ed:35:a3:57:c3:
                    16:2f:75:18:42:13:71:0f:ee:2e:68:8e:ac:1c:ee:
                    e7:da:89:1d:80:89:47:f0:73:88:ae:63:d0:92:1d:
                    e8:84:3c:ce:f9:61:4a:3d:6e:d2:43:f1:29:e3:d6:
                    d4:bb:9d:20:fa:d2:1e:3c:52:b7:3a:d2:bf:af:23:
                    4b:63:28:f5:61:66:8a:55:8c:1d:04:14:23:a6:11:
                    18:cc:46:6b:2f:0c:f3:6a:ad:ef:8f:fd:21:ef:a6:
                    72:ba:46:97:25:7a:a0:41:aa:08:e6:c6:74:91:75:
                    55:7a:36:f7:7c:90:23:ad:65:2d:24:77:7f:c2:0e:
                    dc:be:aa:fe:7d:d1:5c:a4:0a:92:4f:07:ec:f8:f6:
                    0c:65:41:33:ad:ba:ff:49:fa:8d:2e:75:8d:04:41:
                    11:1f:f6:57:b5:a5:d4:74:ac:ca:7d:aa:14:b5:e2:
                    59:1c:6c:16:68:f9:e0:35:a9:7c:97:9a:9d:04:53:
                    f5:61:8c:76:b8:d2:48:8e:e3:52:da:95:cc:7e:a8:
                    ea:4b:0e:3e:02:a3:6d:67:e0:42:36:c2:8c:ac:ec:
                    de:30:03:fc:33:26:c9:3b:c3:cd:5d:fb:95:44:8d:
                    69:c3:31:cf:73:a3:03:9a:e7:4a:bb:70:b8:eb:29:
                    05:24:2b:89:98:16:eb:65:b8:bb:9d:f6:24:30:d9:
                    17:b2:3e:9b:de:33:fc:51:63:4e:b6:4e:9d:e1:12:
                    02:7d:c2:b0:bd:7c:aa:ad:c4:3f:45:58:b6:8e:c3:
                    f7:e3:09:66:b0:2e:c1:b4:43:c3:3b:5f:c6:87:53:
                    45:ce:54:d0:60:0b:17:c1:1c:43:24:4b:34:33:b9:
                    66:75:22:38:e4:f5:9e:15:c4:3d:f0:e0:2f:21:b3:
                    55:18:18:54:19:39:73:2b:ba:f8:79:84:87:ac:02:
                    91:ee:e5:65:79:a4:e9:3e:3f:16:e0:79:8c:3f:7e:
                    ec:01:84:35:5e:06:f1:31:7e:35:7f:f7:fe:d7:03:
                    0f:58:fb:fa:ab:32:d2:48:ee:9c:5a:8b:83:de:63:
                    fc:bc:93:db:f8:03:7c:b3:77:3b:5d:0a:2d:fa:fa:
                    18:7f:b3
                Exponent: 65537 (0x10001)
        X509v3 extensions:
            X509v3 Key Usage: critical
                Digital Signature, Key Encipherment
            X509v3 Basic Constraints: 
                CA:FALSE
            X509v3 Extended Key Usage: 
                TLS Web Server Authentication, TLS Web Client Authentication
            X509v3 Subject Key Identifier: 
                A7:44:7B:5F:7F:C9:28:DD:36:75:9A:C3:23:14:81:37:54:54:36:BC
            X509v3 Authority Key Identifier: 
                keyid:A3:9D:5A:C1:DA:0D:64:9E:55:C0:B0:1A:51:4C:0D:D9:71:3C:E3:96

            Authority Information Access: 
                CA Issuers - URI:http//tim2.xws/ca/tls-ca.cer

            X509v3 CRL Distribution Points: 

                Full Name:
                  URI:http//tim2.xws/ca/tls-ca.crl

            X509v3 Subject Alternative Name: 
                DNS:tim2.xws, DNS:host.docker.internal, DNS:localhost, DNS:eureka, IP Address:172.20.0.0, IP Address:26.206.31.193, IP Address:10.0.2.15, IP Address:192.168.1.7, IP Address:192.168.99.1, IP Address:127.0.0.1
    Signature Algorithm: sha256WithRSAEncryption
         d1:bf:20:b4:75:d8:a8:b8:9f:9b:08:5a:65:03:15:3a:5b:c7:
         a7:a9:2b:b5:57:00:d7:6e:d8:3d:e4:f2:6a:3d:b8:ac:28:51:
         66:99:a4:2d:1a:40:29:5d:7f:a5:6b:3e:b4:ea:5f:85:6a:47:
         d6:4b:8e:4a:9b:7f:20:40:80:7a:dd:14:3d:6a:5c:8c:c0:f5:
         9b:b8:f9:b7:af:04:d1:03:76:5b:e2:da:55:30:77:17:19:3c:
         be:e6:aa:90:52:59:00:71:a9:22:8a:5e:4d:74:76:03:4f:55:
         af:57:67:97:25:3c:86:86:47:85:a9:eb:cd:f6:f5:48:8b:70:
         a9:65:a1:7d:da:65:1f:86:60:6e:af:b7:c0:2c:79:02:1d:cf:
         1e:f9:59:20:6f:26:7b:97:b2:cc:c6:6d:9a:4f:62:6d:70:ae:
         56:6e:c6:68:c9:f2:c8:9c:f9:b0:77:b5:54:c8:59:06:61:77:
         12:44:85:f9:a4:09:48:78:ed:ca:ee:4a:80:4b:73:16:44:09:
         54:67:ba:09:85:22:9c:e8:53:11:d2:47:b2:ba:70:62:9f:0d:
         41:5a:ab:76:bb:a9:3b:ca:a2:c1:58:17:5a:c5:7f:b8:0a:71:
         87:57:8e:11:60:fd:82:3a:bf:92:a7:d5:21:c4:73:ad:f0:59:
         57:29:e5:1e:99:f8:c5:43:23:a3:5a:d1:24:5f:66:ef:44:dd:
         e8:75:71:8a:36:6a:7a:4f:6d:57:b3:ad:b4:26:28:a9:dc:4e:
         73:84:52:ca:9d:b1:13:9d:0e:62:f9:19:0b:2a:8c:2f:e2:51:
         ca:f6:61:47:4f:41:42:51:7d:13:07:f6:06:06:c1:34:75:68:
         86:28:d4:8e:ac:8a:0e:64:4d:51:e1:c2:7b:ec:88:c9:28:8c:
         31:22:bf:59:6b:54:91:7f:8e:94:6d:bc:e1:ae:80:fe:f6:2c:
         63:e2:6a:f6:05:a5:ee:3e:10:21:9e:8c:8f:70:b2:6d:9a:ed:
         5f:19:78:c2:4a:08:8e:22:46:ab:8f:16:8a:3f:48:f0:cb:51:
         99:df:fb:4f:10:da:fc:55:a3:8b:34:a9:26:08:f6:86:0c:24:
         88:c0:c8:d8:73:9d:60:d9:dc:ce:dc:92:83:91:9b:6b:20:4d:
         e5:d8:9f:8c:ce:d7:72:a3:6c:4d:a4:2c:20:2b:70:c8:2f:25:
         ab:35:77:ec:79:21:c0:f5:1d:4d:eb:23:09:9a:b0:38:7c:c1:
         1e:73:8e:c1:47:63:cd:bb:70:e1:f4:6a:5f:06:6e:75:36:f1:
         d6:6e:cc:88:52:ac:5f:7b:86:1c:4f:8c:56:49:90:31:92:62:
         5b:83:a5:97:88:10:87:92
-----BEGIN CERTIFICATE-----
MIIGPzCCBCegAwIBAgIBBjANBgkqhkiG9w0BAQsFADA+MQswCQYDVQQGEwJOTzEN
MAsGA1UECgwEQlNFUDEOMAwGA1UECwwFVGltIDIxEDAOBgNVBAMMB1RpbTIgQ0Ew
HhcNMjAwNjI2MDkyNjEzWhcNMjIwNjI2MDkyNjEzWjA7MQswCQYDVQQGEwJOTzEN
MAsGA1UECgwEQlNFUDEOMAwGA1UECwwFVGltIDIxDTALBgNVBAMMBGF1dGgwggIi
MA0GCSqGSIb3DQEBAQUAA4ICDwAwggIKAoICAQC4sZPIEdCUDyNaIi/ZNguaSw2r
7/YUiYgjPygou6apcIrVLzMsC9QjwMt22BAujBIqTxsGjveuN92vJcPYWME9sRaO
YfQUsbk1fB0mVV9XCLkgwzvlxfi0uIKsv4Auk7qFn43tNaNXwxYvdRhCE3EP7i5o
jqwc7ufaiR2AiUfwc4iuY9CSHeiEPM75YUo9btJD8Snj1tS7nSD60h48Urc60r+v
I0tjKPVhZopVjB0EFCOmERjMRmsvDPNqre+P/SHvpnK6RpcleqBBqgjmxnSRdVV6
Nvd8kCOtZS0kd3/CDty+qv590VykCpJPB+z49gxlQTOtuv9J+o0udY0EQREf9le1
pdR0rMp9qhS14lkcbBZo+eA1qXyXmp0EU/VhjHa40kiO41Lalcx+qOpLDj4Co21n
4EI2woys7N4wA/wzJsk7w81d+5VEjWnDMc9zowOa50q7cLjrKQUkK4mYFutluLud
9iQw2ReyPpveM/xRY062Tp3hEgJ9wrC9fKqtxD9FWLaOw/fjCWawLsG0Q8M7X8aH
U0XOVNBgCxfBHEMkSzQzuWZ1Ijjk9Z4VxD3w4C8hs1UYGFQZOXMruvh5hIesApHu
5WV5pOk+PxbgeYw/fuwBhDVeBvExfjV/9/7XAw9Y+/qrMtJI7pxai4PeY/y8k9v4
A3yzdztdCi36+hh/swIDAQABo4IBSTCCAUUwDgYDVR0PAQH/BAQDAgWgMAkGA1Ud
EwQCMAAwHQYDVR0lBBYwFAYIKwYBBQUHAwEGCCsGAQUFBwMCMB0GA1UdDgQWBBSn
RHtff8ko3TZ1msMjFIE3VFQ2vDAfBgNVHSMEGDAWgBSjnVrB2g1knlXAsBpRTA3Z
cTzjljA4BggrBgEFBQcBAQQsMCowKAYIKwYBBQUHMAKGHGh0dHAvL3RpbTIueHdz
L2NhL3Rscy1jYS5jZXIwLQYDVR0fBCYwJDAioCCgHoYcaHR0cC8vdGltMi54d3Mv
Y2EvdGxzLWNhLmNybDBgBgNVHREEWTBXggh0aW0yLnh3c4IUaG9zdC5kb2NrZXIu
aW50ZXJuYWyCCWxvY2FsaG9zdIIGZXVyZWthhwSsFAAAhwQazh/BhwQKAAIPhwTA
qAEHhwTAqGMBhwR/AAABMA0GCSqGSIb3DQEBCwUAA4ICAQDRvyC0ddiouJ+bCFpl
AxU6W8enqSu1VwDXbtg95PJqPbisKFFmmaQtGkApXX+laz606l+FakfWS45Km38g
QIB63RQ9alyMwPWbuPm3rwTRA3Zb4tpVMHcXGTy+5qqQUlkAcakiil5NdHYDT1Wv
V2eXJTyGhkeFqevN9vVIi3CpZaF92mUfhmBur7fALHkCHc8e+VkgbyZ7l7LMxm2a
T2JtcK5WbsZoyfLInPmwd7VUyFkGYXcSRIX5pAlIeO3K7kqAS3MWRAlUZ7oJhSKc
6FMR0keyunBinw1BWqt2u6k7yqLBWBdaxX+4CnGHV44RYP2COr+Sp9UhxHOt8FlX
KeUemfjFQyOjWtEkX2bvRN3odXGKNmp6T21Xs620Jiip3E5zhFLKnbETnQ5i+RkL
Kowv4lHK9mFHT0FCUX0TB/YGBsE0dWiGKNSOrIoOZE1R4cJ77IjJKIwxIr9Za1SR
f46UbbzhroD+9ixj4mr2BaXuPhAhnoyPcLJtmu1fGXjCSgiOIkarjxaKP0jwy1GZ
3/tPENr8VaOLNKkmCPaGDCSIwMjYc51g2dzO3JKDkZtrIE3l2J+Mztdyo2xNpCwg
K3DILyWrNXfseSHA9R1N6yMJmrA4fMEec47BR2PNu3Dh9GpfBm51NvHWbsyIUqxf
e4YcT4xWSZAxkmJbg6WXiBCHkg==
-----END CERTIFICATE-----
