Certificate:
    Data:
        Version: 3 (0x2)
        Serial Number: 1 (0x1)
    Signature Algorithm: sha256WithRSAEncryption
        Issuer: C=NO, O=BSEP, OU=Tim 2, CN=Tim2 CA
        Validity
            Not Before: Jun 26 09:26:07 2020 GMT
            Not After : Jun 26 09:26:07 2022 GMT
        Subject: C=NO, O=BSEP, OU=Tim 2, CN=eureka
        Subject Public Key Info:
            Public Key Algorithm: rsaEncryption
                Public-Key: (4096 bit)
                Modulus:
                    00:a6:b4:9f:61:31:ee:e3:5a:0d:3d:c8:0f:30:93:
                    61:fe:f8:c6:f3:7f:b8:41:57:af:52:bb:39:8c:a0:
                    b7:01:f7:8f:1c:af:c3:66:98:ea:21:f2:4c:95:b3:
                    c1:52:19:c8:ae:0c:ff:48:f1:a5:3a:77:26:33:4d:
                    9e:f4:4c:87:f2:e8:24:ac:27:24:bd:3f:f7:50:3d:
                    cd:72:88:72:8b:2b:f0:f5:33:7e:ed:7a:8c:a7:89:
                    42:23:d5:ca:78:11:57:b1:b4:a7:93:c9:e0:ab:3f:
                    d6:7a:42:73:98:e7:cd:78:49:76:ad:0e:5f:33:e5:
                    19:77:8a:b3:3d:0a:66:4a:cc:88:21:9c:53:7d:b9:
                    0f:9d:8b:d2:91:d0:1d:9f:37:11:46:f7:54:2e:3e:
                    60:cd:de:fd:0b:6d:52:d0:9a:fb:7d:59:e1:8b:c3:
                    ba:b2:1c:1c:c2:9f:bf:fc:16:46:37:b8:7d:69:76:
                    d8:1e:ef:c6:b3:0a:2f:b9:b6:ac:37:8b:02:5b:90:
                    3d:e9:ab:25:70:6d:7d:b4:8b:e4:c9:62:38:fc:4e:
                    19:53:ba:af:ea:d4:c7:60:39:b4:75:5b:c0:03:3d:
                    55:e1:f5:95:ff:b0:52:d2:5a:70:9b:2a:95:e0:9f:
                    7d:03:18:2f:a5:06:55:42:97:39:bf:45:c5:b8:d1:
                    d9:cd:38:0a:1c:ef:be:42:0d:a7:7b:02:ff:65:ac:
                    40:f8:2a:5f:2e:47:51:f9:71:55:19:27:20:61:0e:
                    31:18:1e:09:e6:8a:11:01:74:c4:e5:43:b5:ff:a1:
                    1a:68:45:53:72:9f:5e:09:c1:9a:85:82:a3:2f:e6:
                    d3:9f:16:35:0a:61:f3:39:d4:cd:1a:2e:8e:f8:15:
                    c8:f4:d6:ed:87:d3:1e:bf:bc:7a:0e:ef:0b:76:b2:
                    86:a3:e0:a3:34:e0:17:d8:26:5d:a0:cd:73:d8:5a:
                    b0:e3:72:4a:55:77:1c:e4:6f:60:85:01:0c:98:fb:
                    0c:bf:fc:50:f8:5a:4d:03:bb:66:52:20:f5:a2:d4:
                    01:e4:dd:78:cb:b1:6a:5b:8a:6d:41:9e:4d:72:87:
                    b5:0b:36:72:74:92:a5:a4:92:74:4a:4e:cb:87:22:
                    56:f3:e0:d6:e4:82:5f:8e:e1:08:fc:9d:a2:b6:f3:
                    47:a9:d5:a8:16:7e:a7:37:90:e7:00:13:4d:c5:b1:
                    e2:20:34:1b:d9:8f:5c:8e:cf:71:a0:c3:e9:c1:8a:
                    ee:07:1c:31:6a:95:b3:2e:cc:e4:64:d1:ff:75:a6:
                    e6:bb:58:8f:75:c7:11:07:14:04:a9:b2:ee:07:1f:
                    59:b9:00:90:06:12:eb:8b:c1:13:df:d4:4a:a3:75:
                    3d:52:cd
                Exponent: 65537 (0x10001)
        X509v3 extensions:
            X509v3 Key Usage: critical
                Digital Signature, Key Encipherment
            X509v3 Basic Constraints: 
                CA:FALSE
            X509v3 Extended Key Usage: 
                TLS Web Server Authentication, TLS Web Client Authentication
            X509v3 Subject Key Identifier: 
                86:36:59:B0:20:79:22:22:F6:BD:85:BC:B5:61:E2:90:16:38:39:99
            X509v3 Authority Key Identifier: 
                keyid:A3:9D:5A:C1:DA:0D:64:9E:55:C0:B0:1A:51:4C:0D:D9:71:3C:E3:96

            Authority Information Access: 
                CA Issuers - URI:http//tim2.xws/ca/tls-ca.cer

            X509v3 CRL Distribution Points: 

                Full Name:
                  URI:http//tim2.xws/ca/tls-ca.crl

            X509v3 Subject Alternative Name: 
                DNS:tim2.xws, DNS:host.docker.internal, DNS:localhost, DNS:eureka, IP Address:172.20.0.0, IP Address:26.206.31.193, IP Address:10.0.2.15, IP Address:192.168.1.7, IP Address:192.168.99.1, IP Address:127.0.0.1
    Signature Algorithm: sha256WithRSAEncryption
         67:c5:bf:fa:3c:c6:48:01:7f:85:7c:1d:7f:f2:4f:ed:ca:fc:
         cd:85:f3:dc:7b:f3:39:41:99:70:07:c0:1e:fe:b9:09:ab:d9:
         88:d7:0e:58:7c:e1:91:8a:22:23:30:0a:78:19:14:e2:af:04:
         7f:f8:a8:a2:14:22:e0:8d:9d:f4:bc:10:bb:a4:1a:4c:ae:e7:
         27:59:a7:d1:59:22:46:83:6e:4c:7a:fa:b0:2e:87:8b:25:2f:
         ca:4b:0e:0d:0d:01:96:4d:94:8a:2f:8a:32:92:5b:0b:c5:f7:
         76:7d:5a:3d:d1:d2:39:c1:fc:0f:a3:1a:e6:c8:6b:33:f5:fa:
         30:b6:c7:7b:69:cf:2f:df:f3:0f:4e:79:42:a3:2b:6b:a3:f0:
         e8:3c:39:db:63:6d:81:ff:47:fc:ca:ef:12:0b:45:92:3f:3a:
         7e:69:f1:eb:87:d3:a2:6b:e7:ed:9e:39:9b:f3:50:1d:44:f2:
         3f:da:80:96:43:88:ed:d9:3b:86:00:ba:fe:43:85:10:db:bd:
         73:6d:13:a2:1f:87:5a:d6:f1:2a:37:ae:dc:6c:56:77:0d:53:
         4c:fa:4c:7e:c3:bf:fb:7c:8d:64:a2:d8:a1:d3:e4:98:c1:a8:
         20:9c:18:11:e1:fa:e2:58:9a:92:75:01:8f:31:a1:da:7c:86:
         e7:ae:8a:a2:53:55:d2:11:b9:a4:cf:a0:d0:df:a9:f3:94:4e:
         cd:bf:d7:1f:62:d3:68:b5:cf:e0:e9:15:45:60:b7:7f:7f:df:
         3d:df:36:ee:c1:73:09:53:07:f6:e7:ee:6b:1c:9e:83:c0:f1:
         8f:ed:75:5c:c2:ae:c8:8c:7d:ef:8b:b9:a0:9c:35:57:96:16:
         89:60:bb:29:00:8e:97:f4:a4:cb:ad:16:9d:ee:9e:df:32:d9:
         c9:6f:ae:7d:cb:76:07:6b:4f:a7:a6:8e:90:f7:c5:13:c9:50:
         bf:56:d2:56:63:ca:63:30:99:2f:fc:54:62:04:6e:35:b1:91:
         21:b6:77:7a:22:1e:5c:90:aa:f8:05:be:34:95:8f:ba:65:e5:
         41:02:86:4b:1f:15:64:ea:25:9b:63:02:04:43:e1:cb:1c:ed:
         3e:d2:6a:0c:54:71:2e:68:3c:f7:2c:88:e7:4c:c9:93:48:7b:
         b7:af:e6:4b:78:fd:0a:9d:6c:f0:4f:3e:49:f8:95:21:19:d2:
         b2:82:1f:63:85:4d:2f:92:fb:a2:e2:4a:96:29:13:d4:b8:a7:
         f2:49:75:db:5d:89:72:48:5f:0b:e2:12:3e:54:fd:f8:7f:bd:
         3e:82:d9:37:1b:69:8f:50:a5:ce:d7:57:9c:35:89:16:15:1f:
         5a:56:c8:36:4d:35:f3:d9
-----BEGIN CERTIFICATE-----
MIIGQTCCBCmgAwIBAgIBATANBgkqhkiG9w0BAQsFADA+MQswCQYDVQQGEwJOTzEN
MAsGA1UECgwEQlNFUDEOMAwGA1UECwwFVGltIDIxEDAOBgNVBAMMB1RpbTIgQ0Ew
HhcNMjAwNjI2MDkyNjA3WhcNMjIwNjI2MDkyNjA3WjA9MQswCQYDVQQGEwJOTzEN
MAsGA1UECgwEQlNFUDEOMAwGA1UECwwFVGltIDIxDzANBgNVBAMMBmV1cmVrYTCC
AiIwDQYJKoZIhvcNAQEBBQADggIPADCCAgoCggIBAKa0n2Ex7uNaDT3IDzCTYf74
xvN/uEFXr1K7OYygtwH3jxyvw2aY6iHyTJWzwVIZyK4M/0jxpTp3JjNNnvRMh/Lo
JKwnJL0/91A9zXKIcosr8PUzfu16jKeJQiPVyngRV7G0p5PJ4Ks/1npCc5jnzXhJ
dq0OXzPlGXeKsz0KZkrMiCGcU325D52L0pHQHZ83EUb3VC4+YM3e/QttUtCa+31Z
4YvDurIcHMKfv/wWRje4fWl22B7vxrMKL7m2rDeLAluQPemrJXBtfbSL5MliOPxO
GVO6r+rUx2A5tHVbwAM9VeH1lf+wUtJacJsqleCffQMYL6UGVUKXOb9FxbjR2c04
ChzvvkINp3sC/2WsQPgqXy5HUflxVRknIGEOMRgeCeaKEQF0xOVDtf+hGmhFU3Kf
XgnBmoWCoy/m058WNQph8znUzRoujvgVyPTW7YfTHr+8eg7vC3ayhqPgozTgF9gm
XaDNc9hasONySlV3HORvYIUBDJj7DL/8UPhaTQO7ZlIg9aLUAeTdeMuxaluKbUGe
TXKHtQs2cnSSpaSSdEpOy4ciVvPg1uSCX47hCPydorbzR6nVqBZ+pzeQ5wATTcWx
4iA0G9mPXI7PcaDD6cGK7gccMWqVsy7M5GTR/3Wm5rtYj3XHEQcUBKmy7gcfWbkA
kAYS64vBE9/USqN1PVLNAgMBAAGjggFJMIIBRTAOBgNVHQ8BAf8EBAMCBaAwCQYD
VR0TBAIwADAdBgNVHSUEFjAUBggrBgEFBQcDAQYIKwYBBQUHAwIwHQYDVR0OBBYE
FIY2WbAgeSIi9r2FvLVh4pAWODmZMB8GA1UdIwQYMBaAFKOdWsHaDWSeVcCwGlFM
DdlxPOOWMDgGCCsGAQUFBwEBBCwwKjAoBggrBgEFBQcwAoYcaHR0cC8vdGltMi54
d3MvY2EvdGxzLWNhLmNlcjAtBgNVHR8EJjAkMCKgIKAehhxodHRwLy90aW0yLnh3
cy9jYS90bHMtY2EuY3JsMGAGA1UdEQRZMFeCCHRpbTIueHdzghRob3N0LmRvY2tl
ci5pbnRlcm5hbIIJbG9jYWxob3N0ggZldXJla2GHBKwUAACHBBrOH8GHBAoAAg+H
BMCoAQeHBMCoYwGHBH8AAAEwDQYJKoZIhvcNAQELBQADggIBAGfFv/o8xkgBf4V8
HX/yT+3K/M2F89x78zlBmXAHwB7+uQmr2YjXDlh84ZGKIiMwCngZFOKvBH/4qKIU
IuCNnfS8ELukGkyu5ydZp9FZIkaDbkx6+rAuh4slL8pLDg0NAZZNlIovijKSWwvF
93Z9Wj3R0jnB/A+jGubIazP1+jC2x3tpzy/f8w9OeUKjK2uj8Og8OdtjbYH/R/zK
7xILRZI/On5p8euH06Jr5+2eOZvzUB1E8j/agJZDiO3ZO4YAuv5DhRDbvXNtE6If
h1rW8So3rtxsVncNU0z6TH7Dv/t8jWSi2KHT5JjBqCCcGBHh+uJYmpJ1AY8xodp8
hueuiqJTVdIRuaTPoNDfqfOUTs2/1x9i02i1z+DpFUVgt39/3z3fNu7BcwlTB/bn
7mscnoPA8Y/tdVzCrsiMfe+LuaCcNVeWFolguykAjpf0pMutFp3unt8y2clvrn3L
dgdrT6emjpD3xRPJUL9W0lZjymMwmS/8VGIEbjWxkSG2d3oiHlyQqvgFvjSVj7pl
5UEChksfFWTqJZtjAgRD4csc7T7SagxUcS5oPPcsiOdMyZNIe7ev5kt4/QqdbPBP
Pkn4lSEZ0rKCH2OFTS+S+6LiSpYpE9S4p/JJddtdiXJIXwviEj5U/fh/vT6C2Tcb
aY9Qpc7XV5w1iRYVH1pWyDZNNfPZ
-----END CERTIFICATE-----
