Certificate:
    Data:
        Version: 3 (0x2)
        Serial Number: 2 (0x2)
    Signature Algorithm: sha256WithRSAEncryption
        Issuer: C=NO, O=BSEP, OU=Tim 2, CN=Tim2 CA
        Validity
            Not Before: Jun 26 09:26:08 2020 GMT
            Not After : Jun 26 09:26:08 2022 GMT
        Subject: C=NO, O=BSEP, OU=Tim 2, CN=zuul
        Subject Public Key Info:
            Public Key Algorithm: rsaEncryption
                Public-Key: (4096 bit)
                Modulus:
                    00:c1:6f:4f:af:69:a4:2e:73:dd:23:cb:7b:3c:94:
                    7c:91:3e:ea:51:0a:23:a9:0d:fa:2d:d9:c4:8c:a6:
                    58:a7:c7:68:78:dc:4b:00:a3:56:a7:53:a5:7e:b7:
                    2b:aa:ee:54:85:ef:90:87:bf:1e:e4:3f:9d:52:74:
                    a9:e8:6a:41:ac:af:c3:ca:1f:b0:7c:34:6e:14:be:
                    fb:3a:21:ee:7a:ee:4f:84:d8:0a:df:8f:17:dd:64:
                    88:73:0c:ad:6e:58:aa:e3:0a:9d:5f:e7:e1:ff:01:
                    2c:80:83:c3:15:8a:93:66:b7:bf:e0:5d:c6:6c:dc:
                    1f:b6:36:b0:25:ac:e5:dd:d3:e6:11:b4:0c:0a:4d:
                    5a:f8:97:55:0d:0a:66:e5:9e:d9:6b:6e:be:35:6c:
                    60:b9:22:f3:18:29:23:70:bd:9d:70:0e:21:7b:4f:
                    ba:91:b6:da:cb:3c:a2:3f:21:93:1a:cc:c4:44:8b:
                    3a:28:f1:7f:68:f7:95:d9:19:e2:5f:1d:f4:5c:bd:
                    fc:74:2a:12:b9:0b:7c:1c:3e:db:40:e3:c1:d1:49:
                    32:f5:94:eb:4c:ba:db:79:4a:bb:ea:94:b0:2f:17:
                    d9:16:de:a0:75:5c:c2:bb:7b:f8:33:fc:ee:a5:7f:
                    e9:02:f5:08:17:9d:39:4b:4f:24:3a:04:86:4e:13:
                    0a:a0:79:2f:60:4c:44:7b:c6:49:b1:32:a9:ec:31:
                    7b:fe:88:7e:04:01:fc:61:f5:36:b3:3a:59:a6:97:
                    f0:c0:c6:a3:b9:68:4a:8b:72:c1:5d:0d:df:8d:70:
                    5b:25:c2:a1:d0:97:30:b5:dd:0e:f7:5a:c0:f9:55:
                    9e:b4:80:52:e5:36:d6:1b:10:0b:a3:90:ed:75:73:
                    70:11:54:55:91:8f:86:12:b0:f3:c4:dd:29:4f:46:
                    79:b9:b1:21:ea:1a:cd:07:40:44:5b:08:23:fe:11:
                    2e:b5:72:ac:dd:63:e5:ab:10:f1:d7:fb:64:a0:e6:
                    8c:25:d6:ab:38:a0:a5:80:52:96:28:d6:d6:47:45:
                    55:67:93:9e:a1:a4:13:ca:c1:bd:ba:7b:06:74:25:
                    a3:67:eb:97:41:c5:69:69:64:ad:29:d2:31:06:73:
                    dc:79:8c:53:c5:89:72:72:e3:c0:72:74:bb:08:c9:
                    5b:a0:ea:ab:a2:11:ab:a1:49:a7:ae:d6:94:c5:dd:
                    17:e4:3f:da:7c:69:98:c4:b7:86:0a:f9:a0:ee:af:
                    6b:f0:c9:00:0f:27:c1:bc:87:40:ed:cd:f3:29:35:
                    6e:9d:95:ba:a4:03:0e:43:24:b2:c0:3d:a9:d7:27:
                    b5:d8:ef:5f:00:76:67:22:cb:5e:48:56:24:99:fc:
                    4e:a5:c7
                Exponent: 65537 (0x10001)
        X509v3 extensions:
            X509v3 Key Usage: critical
                Digital Signature, Key Encipherment
            X509v3 Basic Constraints: 
                CA:FALSE
            X509v3 Extended Key Usage: 
                TLS Web Server Authentication, TLS Web Client Authentication
            X509v3 Subject Key Identifier: 
                C1:0B:CD:23:69:9A:0E:19:66:74:C9:F2:3B:59:C6:A5:81:D9:3C:73
            X509v3 Authority Key Identifier: 
                keyid:A3:9D:5A:C1:DA:0D:64:9E:55:C0:B0:1A:51:4C:0D:D9:71:3C:E3:96

            Authority Information Access: 
                CA Issuers - URI:http//tim2.xws/ca/tls-ca.cer

            X509v3 CRL Distribution Points: 

                Full Name:
                  URI:http//tim2.xws/ca/tls-ca.crl

            X509v3 Subject Alternative Name: 
                DNS:tim2.xws, DNS:host.docker.internal, DNS:localhost, DNS:eureka, IP Address:172.20.0.0, IP Address:26.206.31.193, IP Address:10.0.2.15, IP Address:192.168.1.7, IP Address:192.168.99.1, IP Address:127.0.0.1
    Signature Algorithm: sha256WithRSAEncryption
         4a:4d:d4:cd:90:ce:e3:5c:4a:af:48:73:bc:cb:94:8d:c2:99:
         c6:19:96:cc:37:b5:38:55:05:74:c2:ad:dd:65:c5:45:d5:f8:
         45:92:6a:bf:3a:90:21:eb:cd:38:b5:08:9b:b1:72:0d:22:3e:
         e7:e4:fa:fc:22:26:eb:66:f8:f2:f7:65:87:8a:fe:ee:45:2a:
         34:8e:5b:40:b5:90:4b:0c:28:9f:a5:ca:c1:fa:2b:ff:30:33:
         e2:d7:3a:75:8e:d7:7d:10:45:9f:50:84:b4:a5:7f:01:e3:0e:
         a3:17:ca:31:14:7a:e5:65:5f:1a:06:f8:e9:4f:6e:94:e1:85:
         d4:8e:f1:2f:25:4d:0e:a3:2f:69:49:1c:1d:dc:e2:e1:7a:e2:
         d8:35:9a:56:d9:e0:cc:f0:89:8a:ca:68:e7:a4:4f:b9:d7:74:
         db:c9:66:4c:e7:54:f3:70:c7:2d:cb:b9:9a:78:0a:fd:2a:ed:
         73:65:50:cc:cb:e1:28:0c:67:54:2b:66:f7:4c:30:11:5b:8c:
         2a:ad:fe:94:ca:f3:94:d8:0d:ce:be:b1:1b:de:e2:9f:da:1b:
         76:aa:69:1d:92:33:77:d1:02:f2:71:6f:da:f9:c4:fb:11:95:
         8b:d2:c7:f6:ee:2c:c3:b5:d0:da:55:d0:54:ee:71:32:ed:b8:
         66:9c:e7:7e:ad:07:72:73:2f:d5:a8:59:a4:18:1e:4d:62:85:
         cd:f2:7e:df:e0:ac:31:c8:f2:af:5b:60:aa:4d:65:95:c6:47:
         be:95:c3:4c:62:12:06:f0:43:f8:5d:ea:2e:3e:9a:0c:ca:05:
         71:33:e8:b5:f1:21:4f:ab:a0:22:2d:1e:9f:05:52:40:db:57:
         20:a8:78:dc:fd:4e:d6:6a:9a:9a:52:cf:8a:d7:8f:59:34:1e:
         96:6d:36:48:30:d9:b5:c9:79:e4:7d:54:05:c8:55:af:1d:60:
         49:29:49:0f:12:e8:4c:91:76:6a:6c:58:01:56:0a:13:02:c2:
         e2:a6:64:22:3b:1c:48:9d:d3:2d:4e:cb:98:62:30:8d:e9:0f:
         c9:4e:06:76:42:de:38:cd:c2:b3:c2:b1:e1:7f:e6:20:7c:5c:
         fc:a4:eb:dc:01:37:03:31:6a:22:8e:2a:81:d0:88:4b:1c:9d:
         1d:54:f8:66:8a:a4:83:8f:e6:b5:0d:2f:c3:c5:35:44:ef:54:
         be:46:e8:ff:c1:47:eb:cd:38:54:7e:59:84:f5:df:fe:8a:f3:
         6f:c5:fd:28:96:fe:41:d8:cf:90:39:3e:39:a0:ee:97:15:49:
         bc:a7:c4:be:61:5f:ac:e7:c3:34:20:e7:9c:2c:aa:ce:5b:39:
         c6:e9:60:b6:ab:44:72:da
-----BEGIN CERTIFICATE-----
MIIGPzCCBCegAwIBAgIBAjANBgkqhkiG9w0BAQsFADA+MQswCQYDVQQGEwJOTzEN
MAsGA1UECgwEQlNFUDEOMAwGA1UECwwFVGltIDIxEDAOBgNVBAMMB1RpbTIgQ0Ew
HhcNMjAwNjI2MDkyNjA4WhcNMjIwNjI2MDkyNjA4WjA7MQswCQYDVQQGEwJOTzEN
MAsGA1UECgwEQlNFUDEOMAwGA1UECwwFVGltIDIxDTALBgNVBAMMBHp1dWwwggIi
MA0GCSqGSIb3DQEBAQUAA4ICDwAwggIKAoICAQDBb0+vaaQuc90jy3s8lHyRPupR
CiOpDfot2cSMplinx2h43EsAo1anU6V+tyuq7lSF75CHvx7kP51SdKnoakGsr8PK
H7B8NG4Uvvs6Ie567k+E2ArfjxfdZIhzDK1uWKrjCp1f5+H/ASyAg8MVipNmt7/g
XcZs3B+2NrAlrOXd0+YRtAwKTVr4l1UNCmblntlrbr41bGC5IvMYKSNwvZ1wDiF7
T7qRttrLPKI/IZMazMREizoo8X9o95XZGeJfHfRcvfx0KhK5C3wcPttA48HRSTL1
lOtMutt5SrvqlLAvF9kW3qB1XMK7e/gz/O6lf+kC9QgXnTlLTyQ6BIZOEwqgeS9g
TER7xkmxMqnsMXv+iH4EAfxh9TazOlmml/DAxqO5aEqLcsFdDd+NcFslwqHQlzC1
3Q73WsD5VZ60gFLlNtYbEAujkO11c3ARVFWRj4YSsPPE3SlPRnm5sSHqGs0HQERb
CCP+ES61cqzdY+WrEPHX+2Sg5owl1qs4oKWAUpYo1tZHRVVnk56hpBPKwb26ewZ0
JaNn65dBxWlpZK0p0jEGc9x5jFPFiXJy48BydLsIyVug6quiEauhSaeu1pTF3Rfk
P9p8aZjEt4YK+aDur2vwyQAPJ8G8h0DtzfMpNW6dlbqkAw5DJLLAPanXJ7XY718A
dmciy15IViSZ/E6lxwIDAQABo4IBSTCCAUUwDgYDVR0PAQH/BAQDAgWgMAkGA1Ud
EwQCMAAwHQYDVR0lBBYwFAYIKwYBBQUHAwEGCCsGAQUFBwMCMB0GA1UdDgQWBBTB
C80jaZoOGWZ0yfI7Wcalgdk8czAfBgNVHSMEGDAWgBSjnVrB2g1knlXAsBpRTA3Z
cTzjljA4BggrBgEFBQcBAQQsMCowKAYIKwYBBQUHMAKGHGh0dHAvL3RpbTIueHdz
L2NhL3Rscy1jYS5jZXIwLQYDVR0fBCYwJDAioCCgHoYcaHR0cC8vdGltMi54d3Mv
Y2EvdGxzLWNhLmNybDBgBgNVHREEWTBXggh0aW0yLnh3c4IUaG9zdC5kb2NrZXIu
aW50ZXJuYWyCCWxvY2FsaG9zdIIGZXVyZWthhwSsFAAAhwQazh/BhwQKAAIPhwTA
qAEHhwTAqGMBhwR/AAABMA0GCSqGSIb3DQEBCwUAA4ICAQBKTdTNkM7jXEqvSHO8
y5SNwpnGGZbMN7U4VQV0wq3dZcVF1fhFkmq/OpAh6804tQibsXINIj7n5Pr8Iibr
Zvjy92WHiv7uRSo0jltAtZBLDCifpcrB+iv/MDPi1zp1jtd9EEWfUIS0pX8B4w6j
F8oxFHrlZV8aBvjpT26U4YXUjvEvJU0Ooy9pSRwd3OLheuLYNZpW2eDM8ImKymjn
pE+513TbyWZM51TzcMcty7maeAr9Ku1zZVDMy+EoDGdUK2b3TDARW4wqrf6UyvOU
2A3OvrEb3uKf2ht2qmkdkjN30QLycW/a+cT7EZWL0sf27izDtdDaVdBU7nEy7bhm
nOd+rQdycy/VqFmkGB5NYoXN8n7f4KwxyPKvW2CqTWWVxke+lcNMYhIG8EP4Xeou
PpoMygVxM+i18SFPq6AiLR6fBVJA21cgqHjc/U7WapqaUs+K149ZNB6WbTZIMNm1
yXnkfVQFyFWvHWBJKUkPEuhMkXZqbFgBVgoTAsLipmQiOxxIndMtTsuYYjCN6Q/J
TgZ2Qt44zcKzwrHhf+YgfFz8pOvcATcDMWoijiqB0IhLHJ0dVPhmiqSDj+a1DS/D
xTVE71S+Ruj/wUfrzThUflmE9d/+ivNvxf0olv5B2M+QOT45oO6XFUm8p8S+YV+s
58M0IOecLKrOWznG6WC2q0Ry2g==
-----END CERTIFICATE-----
