Certificate:
    Data:
        Version: 3 (0x2)
        Serial Number: 5 (0x5)
    Signature Algorithm: sha256WithRSAEncryption
        Issuer: C=NO, O=BSEP, OU=Tim 2, CN=Tim2 CA
        Validity
            Not Before: Jun 26 09:26:10 2020 GMT
            Not After : Jun 26 09:26:10 2022 GMT
        Subject: C=NO, O=BSEP, OU=Tim 2, CN=advertisement
        Subject Public Key Info:
            Public Key Algorithm: rsaEncryption
                Public-Key: (4096 bit)
                Modulus:
                    00:c3:27:73:5a:18:3b:c3:30:10:66:20:4e:69:84:
                    3d:f3:e6:96:e7:ef:76:31:a6:eb:27:55:5c:a6:df:
                    95:33:04:11:2a:52:ca:db:d6:a3:67:ca:fb:4a:70:
                    ff:0e:92:4f:c7:a3:52:18:4c:99:41:fa:a8:e0:43:
                    5e:1c:e8:cd:3b:b9:c2:2a:2b:26:13:97:7f:0c:a0:
                    e7:a8:b3:77:26:a2:d4:a8:f1:f5:cd:b7:ce:f1:df:
                    3e:72:f0:a5:ac:a9:db:52:86:b3:9d:26:d9:0e:bf:
                    18:ef:29:57:99:ea:c4:4a:a8:83:3e:1b:f4:73:d5:
                    e8:3f:de:3c:02:e2:e1:19:04:06:93:25:2a:61:ad:
                    67:a4:00:02:14:85:6b:40:3a:bf:7c:c9:86:29:5e:
                    d3:eb:2e:c0:d4:d5:18:ec:6f:2c:8c:2d:62:f6:39:
                    04:56:09:be:33:ee:a2:04:bd:ae:24:e0:6d:4d:5d:
                    3b:ab:48:20:28:1f:6e:9d:c7:49:8d:1f:f5:4a:16:
                    d4:0f:1a:8e:f4:63:e0:ce:30:ec:d1:9e:bd:bf:68:
                    dc:bf:04:36:c2:16:1e:10:81:9e:96:95:be:26:e1:
                    a1:c1:cf:1e:d0:a7:e3:89:72:b5:dd:7a:71:6b:e8:
                    e9:c9:36:9f:18:78:5c:28:1b:f7:2a:e8:55:5d:b8:
                    2f:51:7e:a4:31:34:77:8b:49:32:fd:f0:64:4c:c3:
                    ac:52:18:8c:4d:dc:2f:c6:6c:45:be:87:07:1c:3e:
                    78:80:bd:22:2d:ab:63:54:dd:6a:48:b4:29:0a:ad:
                    0e:7f:86:3c:b2:bb:e6:8b:ce:a4:3a:68:5d:f3:7b:
                    a5:dc:11:60:7f:03:99:81:6a:14:77:14:5f:d1:a0:
                    84:81:0e:d4:ae:72:02:c9:49:73:28:15:2d:ed:83:
                    c4:7f:95:e4:73:70:9b:63:2e:fa:f0:14:04:07:2d:
                    51:db:f4:4d:aa:92:76:c8:62:0a:7c:ee:4b:25:cb:
                    fb:68:f9:cd:40:ce:1f:c2:89:01:c9:bf:d2:80:dc:
                    fe:51:0b:36:13:cb:71:64:fe:54:6e:1a:e0:72:9e:
                    68:dc:c7:4c:45:7a:1c:ae:fe:de:8f:47:c1:6a:1e:
                    e5:57:f2:cc:36:c0:04:de:f0:4c:e3:eb:fb:77:4f:
                    ec:44:64:cf:37:8b:63:7a:77:e2:dd:1c:91:ef:09:
                    2e:ad:80:3c:13:ed:93:b3:f2:b7:0c:c2:5a:e7:5d:
                    13:f9:47:50:97:28:1e:33:61:a3:10:4e:18:19:d0:
                    f0:de:3b:50:7d:69:58:0a:e9:a3:2c:91:e5:68:49:
                    a1:02:87:6b:a0:30:37:73:bb:4b:fb:3b:86:56:d5:
                    4c:07:91
                Exponent: 65537 (0x10001)
        X509v3 extensions:
            X509v3 Key Usage: critical
                Digital Signature, Key Encipherment
            X509v3 Basic Constraints: 
                CA:FALSE
            X509v3 Extended Key Usage: 
                TLS Web Server Authentication, TLS Web Client Authentication
            X509v3 Subject Key Identifier: 
                38:6A:01:DE:4E:C4:ED:A3:2E:85:A9:BD:89:48:A3:EA:BC:B4:B7:6A
            X509v3 Authority Key Identifier: 
                keyid:A3:9D:5A:C1:DA:0D:64:9E:55:C0:B0:1A:51:4C:0D:D9:71:3C:E3:96

            Authority Information Access: 
                CA Issuers - URI:http//tim2.xws/ca/tls-ca.cer

            X509v3 CRL Distribution Points: 

                Full Name:
                  URI:http//tim2.xws/ca/tls-ca.crl

            X509v3 Subject Alternative Name: 
                DNS:tim2.xws, DNS:host.docker.internal, DNS:localhost, DNS:eureka, IP Address:172.20.0.0, IP Address:26.206.31.193, IP Address:10.0.2.15, IP Address:192.168.1.7, IP Address:192.168.99.1, IP Address:127.0.0.1
    Signature Algorithm: sha256WithRSAEncryption
         a2:90:5f:3d:bb:b0:b5:ba:ef:31:81:28:d6:a6:17:3f:0b:51:
         06:49:f4:1a:48:43:8a:e2:60:64:bd:d8:4b:27:9c:80:49:c3:
         e0:0a:bf:4f:f3:48:0d:0e:eb:49:5d:a7:27:1c:94:33:a9:79:
         bd:33:07:49:04:37:4a:55:71:58:d7:c2:6f:19:37:25:23:ce:
         49:ff:2c:47:e8:33:1c:27:80:31:51:56:71:3a:f9:13:31:0d:
         d4:de:dd:c4:cc:b2:b2:0e:55:34:70:62:2c:e2:8c:d1:7d:71:
         e3:dd:c1:06:80:8e:89:6e:9e:3a:d2:3c:29:fb:45:60:54:99:
         a0:13:42:28:47:94:ed:c7:cf:57:78:18:f9:64:42:a7:ef:3e:
         88:e6:fa:0e:97:fc:2d:9a:63:80:1c:dd:27:36:c0:85:ec:20:
         f5:5e:4a:b7:30:f1:34:50:62:51:50:fe:c2:12:7c:76:ea:e3:
         ee:98:8e:17:ae:be:f2:c3:b8:fe:8f:cb:f3:3a:62:e4:83:fb:
         e5:e5:ff:b0:4d:d4:b0:b4:7e:73:53:9e:a4:c2:0f:72:12:47:
         8e:28:48:14:33:15:82:21:1e:05:ae:73:d3:3d:b8:71:90:c0:
         52:88:df:52:10:a8:84:36:09:25:78:da:fd:a5:4e:f7:44:95:
         67:e8:e3:31:a6:53:82:e0:03:76:3e:e1:2c:57:6a:86:24:d9:
         b0:8c:db:e2:e3:5a:d5:7c:29:a1:63:7f:1f:18:04:b8:65:b2:
         2f:73:d8:f8:25:48:09:cc:42:68:b5:b5:e9:f0:cc:1a:6f:49:
         8c:98:69:86:c0:3f:35:03:15:87:c3:75:7e:fc:19:96:f1:d8:
         fd:5f:c2:23:c4:1b:dd:ba:a5:7c:16:25:73:79:bf:1c:60:39:
         db:66:15:bb:c5:b7:2c:c0:ff:7e:4b:97:81:65:b7:95:88:b6:
         0f:20:1f:a9:b7:76:ca:e1:a2:ba:7f:69:e6:3c:62:b5:9a:48:
         93:b1:fc:63:ae:41:fd:65:ad:75:84:92:66:3b:8c:c4:71:b4:
         fc:3b:6d:c0:5f:d9:f9:0b:0d:74:b6:3d:27:9e:7c:e2:32:40:
         dc:b4:2b:70:99:b4:9b:bd:77:34:00:d6:2c:74:86:98:56:83:
         ee:d1:49:d9:a7:e2:4c:d1:46:1e:6a:9e:a3:ab:d0:7d:6a:dd:
         d1:77:c3:71:8f:db:c0:43:cf:e4:b1:ea:2d:87:e9:23:33:57:
         2e:19:5d:32:c8:5c:08:d5:6e:57:4f:05:20:94:05:91:35:7c:
         b2:5a:35:66:fd:bc:ba:eb:cc:38:ec:11:20:7c:af:22:f6:d3:
         95:fe:1c:08:07:09:78:0b
-----BEGIN CERTIFICATE-----
MIIGSDCCBDCgAwIBAgIBBTANBgkqhkiG9w0BAQsFADA+MQswCQYDVQQGEwJOTzEN
MAsGA1UECgwEQlNFUDEOMAwGA1UECwwFVGltIDIxEDAOBgNVBAMMB1RpbTIgQ0Ew
HhcNMjAwNjI2MDkyNjEwWhcNMjIwNjI2MDkyNjEwWjBEMQswCQYDVQQGEwJOTzEN
MAsGA1UECgwEQlNFUDEOMAwGA1UECwwFVGltIDIxFjAUBgNVBAMMDWFkdmVydGlz
ZW1lbnQwggIiMA0GCSqGSIb3DQEBAQUAA4ICDwAwggIKAoICAQDDJ3NaGDvDMBBm
IE5phD3z5pbn73YxpusnVVym35UzBBEqUsrb1qNnyvtKcP8Okk/Ho1IYTJlB+qjg
Q14c6M07ucIqKyYTl38MoOeos3cmotSo8fXNt87x3z5y8KWsqdtShrOdJtkOvxjv
KVeZ6sRKqIM+G/Rz1eg/3jwC4uEZBAaTJSphrWekAAIUhWtAOr98yYYpXtPrLsDU
1RjsbyyMLWL2OQRWCb4z7qIEva4k4G1NXTurSCAoH26dx0mNH/VKFtQPGo70Y+DO
MOzRnr2/aNy/BDbCFh4QgZ6Wlb4m4aHBzx7Qp+OJcrXdenFr6OnJNp8YeFwoG/cq
6FVduC9RfqQxNHeLSTL98GRMw6xSGIxN3C/GbEW+hwccPniAvSItq2NU3WpItCkK
rQ5/hjyyu+aLzqQ6aF3ze6XcEWB/A5mBahR3FF/RoISBDtSucgLJSXMoFS3tg8R/
leRzcJtjLvrwFAQHLVHb9E2qknbIYgp87ksly/to+c1Azh/CiQHJv9KA3P5RCzYT
y3Fk/lRuGuBynmjcx0xFehyu/t6PR8FqHuVX8sw2wATe8Ezj6/t3T+xEZM83i2N6
d+LdHJHvCS6tgDwT7ZOz8rcMwlrnXRP5R1CXKB4zYaMQThgZ0PDeO1B9aVgK6aMs
keVoSaECh2ugMDdzu0v7O4ZW1UwHkQIDAQABo4IBSTCCAUUwDgYDVR0PAQH/BAQD
AgWgMAkGA1UdEwQCMAAwHQYDVR0lBBYwFAYIKwYBBQUHAwEGCCsGAQUFBwMCMB0G
A1UdDgQWBBQ4agHeTsTtoy6Fqb2JSKPqvLS3ajAfBgNVHSMEGDAWgBSjnVrB2g1k
nlXAsBpRTA3ZcTzjljA4BggrBgEFBQcBAQQsMCowKAYIKwYBBQUHMAKGHGh0dHAv
L3RpbTIueHdzL2NhL3Rscy1jYS5jZXIwLQYDVR0fBCYwJDAioCCgHoYcaHR0cC8v
dGltMi54d3MvY2EvdGxzLWNhLmNybDBgBgNVHREEWTBXggh0aW0yLnh3c4IUaG9z
dC5kb2NrZXIuaW50ZXJuYWyCCWxvY2FsaG9zdIIGZXVyZWthhwSsFAAAhwQazh/B
hwQKAAIPhwTAqAEHhwTAqGMBhwR/AAABMA0GCSqGSIb3DQEBCwUAA4ICAQCikF89
u7C1uu8xgSjWphc/C1EGSfQaSEOK4mBkvdhLJ5yAScPgCr9P80gNDutJXacnHJQz
qXm9MwdJBDdKVXFY18JvGTclI85J/yxH6DMcJ4AxUVZxOvkTMQ3U3t3EzLKyDlU0
cGIs4ozRfXHj3cEGgI6Jbp460jwp+0VgVJmgE0IoR5Ttx89XeBj5ZEKn7z6I5voO
l/wtmmOAHN0nNsCF7CD1Xkq3MPE0UGJRUP7CEnx26uPumI4Xrr7yw7j+j8vzOmLk
g/vl5f+wTdSwtH5zU56kwg9yEkeOKEgUMxWCIR4FrnPTPbhxkMBSiN9SEKiENgkl
eNr9pU73RJVn6OMxplOC4AN2PuEsV2qGJNmwjNvi41rVfCmhY38fGAS4ZbIvc9j4
JUgJzEJotbXp8Mwab0mMmGmGwD81AxWHw3V+/BmW8dj9X8IjxBvduqV8FiVzeb8c
YDnbZhW7xbcswP9+S5eBZbeViLYPIB+pt3bK4aK6f2nmPGK1mkiTsfxjrkH9Za11
hJJmO4zEcbT8O23AX9n5Cw10tj0nnnziMkDctCtwmbSbvXc0ANYsdIaYVoPu0UnZ
p+JM0UYeap6jq9B9at3Rd8Nxj9vAQ8/kseoth+kjM1cuGV0yyFwI1W5XTwUglAWR
NXyyWjVm/by668w47BEgfK8i9tOV/hwIBwl4Cw==
-----END CERTIFICATE-----
