Certificate:
    Data:
        Version: 3 (0x2)
        Serial Number: 4 (0x4)
    Signature Algorithm: sha256WithRSAEncryption
        Issuer: C=NO, O=BSEP, OU=Tim 2, CN=Tim2 CA
        Validity
            Not Before: Jun 20 12:48:03 2020 GMT
            Not After : Jun 20 12:48:03 2022 GMT
        Subject: C=NO, O=BSEP, OU=Tim 2, CN=advertisement
        Subject Public Key Info:
            Public Key Algorithm: rsaEncryption
                Public-Key: (4096 bit)
                Modulus:
                    00:cf:2f:e1:d9:4e:28:1d:28:4a:e3:6f:93:14:db:
                    2e:aa:9c:48:92:d9:0a:ea:e5:51:37:01:8c:db:40:
                    41:a0:ef:ce:15:6e:0e:8a:68:54:fc:81:e5:e9:54:
                    de:e2:d6:29:09:98:bd:55:22:2d:63:b3:1d:e7:48:
                    01:e8:77:5a:89:db:40:5c:ea:a4:13:24:d4:15:cb:
                    d5:49:a2:db:6a:dc:99:e2:f7:31:cc:e5:72:95:00:
                    36:32:54:35:2c:15:58:e6:c7:2b:f4:14:21:9b:46:
                    3a:b8:b0:5c:56:e1:98:c2:98:ff:48:fb:06:f4:8f:
                    17:4b:f3:b3:d4:a6:03:44:fb:80:ec:b4:94:ef:a5:
                    07:1b:97:c4:e8:11:6d:ff:93:f6:62:9c:e8:e4:84:
                    a8:df:ea:3a:ba:17:ae:e7:e9:91:12:70:34:12:69:
                    fb:33:e2:43:3e:dc:45:ab:a9:69:08:1e:2f:7a:90:
                    50:17:ac:12:25:12:26:a8:08:78:d4:4a:f0:2d:aa:
                    80:77:c9:6e:3c:78:2a:a9:84:91:78:8c:ab:33:30:
                    89:7c:46:fd:8a:c5:96:3d:21:47:de:c8:ab:bc:4b:
                    8a:c0:ac:c6:46:8b:d5:f5:2a:fc:27:d9:62:34:ec:
                    97:b5:50:75:dd:0f:80:80:37:14:ce:10:d5:41:46:
                    80:18:25:f2:d3:98:60:f6:6b:8e:fd:30:52:a3:80:
                    a9:13:76:5d:10:b7:96:b8:53:31:dd:1f:39:eb:12:
                    10:e7:1c:ae:77:fe:f3:e7:aa:70:69:39:d9:47:85:
                    9d:e3:1c:d5:9c:1a:d7:e4:7c:5f:32:36:c0:39:54:
                    c0:31:1a:46:af:1e:b6:44:43:17:38:3f:4c:a8:d6:
                    63:ca:c2:fd:b9:22:a9:32:86:7d:07:8a:2e:2c:88:
                    87:c1:65:ee:26:eb:53:39:d0:c5:c4:c8:50:40:66:
                    8c:54:3d:51:a7:f1:85:b2:21:e9:9f:f0:b7:5b:12:
                    de:eb:f9:4e:3b:5d:86:f2:74:6f:77:4c:b1:c0:49:
                    f3:3d:cc:1b:be:6a:34:a9:c0:48:59:69:86:1a:4a:
                    10:96:21:b1:96:6e:6a:5a:3d:21:58:c4:fe:da:96:
                    c4:d3:80:91:7a:a0:e8:7e:75:8c:f5:b9:af:9b:7f:
                    0c:ce:a7:e2:22:d2:23:7a:2b:ec:fc:bd:d4:d5:e9:
                    00:b0:26:1b:e9:4a:8b:c8:20:18:3c:88:83:b9:a9:
                    c1:8d:55:c9:d4:87:b1:da:3f:6c:da:81:ac:17:4c:
                    55:a4:74:fa:62:08:79:1c:84:3c:0e:e7:eb:02:3c:
                    74:ad:54:2e:d9:5c:2b:9f:ae:e2:c8:a5:2d:b2:53:
                    5c:64:cf
                Exponent: 65537 (0x10001)
        X509v3 extensions:
            X509v3 Key Usage: critical
                Digital Signature, Key Encipherment
            X509v3 Basic Constraints: 
                CA:FALSE
            X509v3 Extended Key Usage: 
                TLS Web Server Authentication, TLS Web Client Authentication
            X509v3 Subject Key Identifier: 
                6D:7D:44:BB:2A:C0:85:92:CE:C3:DA:42:BF:C0:E0:E9:D8:BD:F8:D0
            X509v3 Authority Key Identifier: 
                keyid:AB:ED:25:FE:54:00:34:9F:1D:AB:8F:4F:89:06:B2:48:6F:04:6D:67

            Authority Information Access: 
                CA Issuers - URI:http//tim2.xws/ca/tls-ca.cer

            X509v3 CRL Distribution Points: 

                Full Name:
                  URI:http//tim2.xws/ca/tls-ca.crl

            X509v3 Subject Alternative Name: 
                DNS:tim2.xws, DNS:host.docker.internal, DNS:localhost, DNS:eureka, IP Address:172.20.0.0, IP Address:26.206.31.193, IP Address:10.0.2.15, IP Address:192.168.1.7, IP Address:192.168.99.1, IP Address:127.0.0.1
    Signature Algorithm: sha256WithRSAEncryption
         8f:11:b9:0b:66:5f:76:f1:c9:3d:96:e7:f9:e2:69:ae:32:df:
         eb:3c:4d:8a:20:9a:8c:e1:45:af:69:54:ea:27:70:85:05:d2:
         74:79:cd:29:7f:75:c5:c5:5d:f8:ef:cd:7e:eb:6f:24:99:86:
         55:78:df:ef:49:89:2f:7b:ba:a3:1a:f2:24:cf:87:11:00:cc:
         84:3e:f2:0a:06:46:8d:57:5d:18:3b:c1:f0:b9:f2:bf:6c:5c:
         83:e7:e6:de:ea:9d:ce:1b:ba:ee:e6:f9:aa:f2:2e:17:df:09:
         81:c2:e0:89:3a:8b:82:77:cd:3c:02:7d:1c:41:19:6e:51:0d:
         55:49:10:8a:83:36:8e:8c:ec:ea:dc:26:ec:bd:7b:6b:87:3f:
         0b:ab:b3:50:ff:1a:1d:eb:01:90:ac:e7:d7:5a:38:0d:af:5a:
         1e:57:54:aa:96:ac:e4:9f:3e:d7:70:38:7a:34:a1:48:78:88:
         e4:6f:02:87:db:a2:0f:de:f1:3c:75:d5:79:42:e3:8b:a0:56:
         e7:32:76:f3:d9:2c:88:f6:b1:31:e1:75:45:92:fc:01:41:61:
         65:79:c8:0c:f3:de:3c:fc:6e:71:2f:41:85:65:f7:00:20:19:
         b7:f3:ed:f1:c7:ca:0f:90:f8:70:63:cb:05:53:3f:38:07:4a:
         9b:20:b5:3a:7c:66:52:7e:00:d7:5e:ed:ff:5b:b2:65:ab:b2:
         d4:3a:49:ae:8a:03:69:27:39:c8:8d:c0:2a:58:55:9c:d7:f3:
         f8:c8:ee:a3:84:66:02:0b:2d:c4:d2:4b:12:22:0e:ec:2b:d3:
         19:f5:b3:82:41:fa:10:ec:77:65:1d:e0:76:e0:47:a5:3f:7a:
         6a:10:d7:07:32:69:82:da:2e:3b:76:42:bf:5b:2d:d5:42:b5:
         fd:81:65:80:e0:a9:8e:2e:85:a1:c7:aa:f8:87:a3:6b:e4:a9:
         2b:48:3c:bd:6b:bd:cb:9a:91:5b:f3:f5:fd:97:8c:79:22:34:
         27:1d:3a:79:1b:a2:a3:4d:e3:90:8a:c2:52:76:4e:e9:1d:d8:
         95:fb:57:73:a5:4f:aa:70:b0:89:40:47:f8:c4:a0:c3:5e:a2:
         38:3d:1d:fb:da:c4:59:df:61:1f:be:f3:db:2b:e0:ff:8b:b0:
         9b:0e:8d:8d:cb:46:03:c1:d9:de:bd:0e:2e:40:43:d1:60:aa:
         7d:88:fc:89:97:09:49:c1:70:9c:5b:46:72:02:f1:70:66:87:
         00:7e:5f:b1:27:dc:d6:82:51:c9:a5:8d:61:ef:c8:e8:83:70:
         46:8d:71:f0:ae:d7:9b:e1:39:f5:65:b2:c5:05:48:c5:96:ff:
         e1:d1:56:1a:b3:bf:94:26
-----BEGIN CERTIFICATE-----
MIIGSDCCBDCgAwIBAgIBBDANBgkqhkiG9w0BAQsFADA+MQswCQYDVQQGEwJOTzEN
MAsGA1UECgwEQlNFUDEOMAwGA1UECwwFVGltIDIxEDAOBgNVBAMMB1RpbTIgQ0Ew
HhcNMjAwNjIwMTI0ODAzWhcNMjIwNjIwMTI0ODAzWjBEMQswCQYDVQQGEwJOTzEN
MAsGA1UECgwEQlNFUDEOMAwGA1UECwwFVGltIDIxFjAUBgNVBAMMDWFkdmVydGlz
ZW1lbnQwggIiMA0GCSqGSIb3DQEBAQUAA4ICDwAwggIKAoICAQDPL+HZTigdKErj
b5MU2y6qnEiS2Qrq5VE3AYzbQEGg784Vbg6KaFT8geXpVN7i1ikJmL1VIi1jsx3n
SAHod1qJ20Bc6qQTJNQVy9VJottq3Jni9zHM5XKVADYyVDUsFVjmxyv0FCGbRjq4
sFxW4ZjCmP9I+wb0jxdL87PUpgNE+4DstJTvpQcbl8ToEW3/k/ZinOjkhKjf6jq6
F67n6ZEScDQSafsz4kM+3EWrqWkIHi96kFAXrBIlEiaoCHjUSvAtqoB3yW48eCqp
hJF4jKszMIl8Rv2KxZY9IUfeyKu8S4rArMZGi9X1Kvwn2WI07Je1UHXdD4CANxTO
ENVBRoAYJfLTmGD2a479MFKjgKkTdl0Qt5a4UzHdHznrEhDnHK53/vPnqnBpOdlH
hZ3jHNWcGtfkfF8yNsA5VMAxGkavHrZEQxc4P0yo1mPKwv25Iqkyhn0Hii4siIfB
Ze4m61M50MXEyFBAZoxUPVGn8YWyIemf8LdbEt7r+U47XYbydG93TLHASfM9zBu+
ajSpwEhZaYYaShCWIbGWbmpaPSFYxP7alsTTgJF6oOh+dYz1ua+bfwzOp+Ii0iN6
K+z8vdTV6QCwJhvpSovIIBg8iIO5qcGNVcnUh7HaP2zagawXTFWkdPpiCHkchDwO
5+sCPHStVC7ZXCufruLIpS2yU1xkzwIDAQABo4IBSTCCAUUwDgYDVR0PAQH/BAQD
AgWgMAkGA1UdEwQCMAAwHQYDVR0lBBYwFAYIKwYBBQUHAwEGCCsGAQUFBwMCMB0G
A1UdDgQWBBRtfUS7KsCFks7D2kK/wODp2L340DAfBgNVHSMEGDAWgBSr7SX+VAA0
nx2rj0+JBrJIbwRtZzA4BggrBgEFBQcBAQQsMCowKAYIKwYBBQUHMAKGHGh0dHAv
L3RpbTIueHdzL2NhL3Rscy1jYS5jZXIwLQYDVR0fBCYwJDAioCCgHoYcaHR0cC8v
dGltMi54d3MvY2EvdGxzLWNhLmNybDBgBgNVHREEWTBXggh0aW0yLnh3c4IUaG9z
dC5kb2NrZXIuaW50ZXJuYWyCCWxvY2FsaG9zdIIGZXVyZWthhwSsFAAAhwQazh/B
hwQKAAIPhwTAqAEHhwTAqGMBhwR/AAABMA0GCSqGSIb3DQEBCwUAA4ICAQCPEbkL
Zl928ck9luf54mmuMt/rPE2KIJqM4UWvaVTqJ3CFBdJ0ec0pf3XFxV34781+628k
mYZVeN/vSYkve7qjGvIkz4cRAMyEPvIKBkaNV10YO8HwufK/bFyD5+be6p3OG7ru
5vmq8i4X3wmBwuCJOouCd808An0cQRluUQ1VSRCKgzaOjOzq3CbsvXtrhz8Lq7NQ
/xod6wGQrOfXWjgNr1oeV1Sqlqzknz7XcDh6NKFIeIjkbwKH26IP3vE8ddV5QuOL
oFbnMnbz2SyI9rEx4XVFkvwBQWFlecgM8948/G5xL0GFZfcAIBm38+3xx8oPkPhw
Y8sFUz84B0qbILU6fGZSfgDXXu3/W7Jlq7LUOkmuigNpJznIjcAqWFWc1/P4yO6j
hGYCCy3E0ksSIg7sK9MZ9bOCQfoQ7HdlHeB24EelP3pqENcHMmmC2i47dkK/Wy3V
QrX9gWWA4KmOLoWhx6r4h6Nr5KkrSDy9a73LmpFb8/X9l4x5IjQnHTp5G6KjTeOQ
isJSdk7pHdiV+1dzpU+qcLCJQEf4xKDDXqI4PR372sRZ32EfvvPbK+D/i7CbDo2N
y0YDwdnevQ4uQEPRYKp9iPyJlwlJwXCcW0ZyAvFwZocAfl+xJ9zWglHJpY1h78jo
g3BGjXHwrteb4Tn1ZbLFBUjFlv/h0VYas7+UJg==
-----END CERTIFICATE-----
