Certificate:
    Data:
        Version: 3 (0x2)
        Serial Number: 9 (0x9)
    Signature Algorithm: sha256WithRSAEncryption
        Issuer: C=NO, O=BSEP, OU=Tim 2, CN=Tim2 CA
        Validity
            Not Before: Jun 26 09:26:14 2020 GMT
            Not After : Jun 26 09:26:14 2022 GMT
        Subject: C=NO, O=BSEP, OU=Tim 2, CN=rabbitmq
        Subject Public Key Info:
            Public Key Algorithm: rsaEncryption
                Public-Key: (4096 bit)
                Modulus:
                    00:b6:b1:74:8c:6b:67:df:c7:f8:38:9a:e2:a4:70:
                    22:65:fd:f3:70:53:55:14:8d:9c:d5:e9:ae:bb:b6:
                    8f:ba:f6:a0:50:2c:05:68:d7:e4:df:3c:dd:a4:62:
                    0c:de:a0:c2:ca:15:b4:47:81:3c:bc:31:df:81:fa:
                    ce:6e:40:87:f1:c4:6b:57:bc:0a:7e:c0:bf:2e:13:
                    18:2c:36:55:af:b3:03:c3:a6:c9:b3:f0:fa:1f:8e:
                    c3:07:1c:9b:8b:22:2e:cd:45:5c:ed:38:5e:67:fd:
                    fc:0f:28:69:ea:88:c2:01:b7:c2:63:6a:fb:11:99:
                    ec:76:1e:2c:95:30:2c:8f:df:bb:d0:0b:c3:2a:36:
                    3e:ff:9a:4a:10:36:7b:d9:33:3c:bf:d0:05:4a:a1:
                    ba:3d:91:ac:18:12:bc:35:4b:70:e6:16:66:ae:67:
                    a2:91:22:aa:64:d0:ce:ae:16:be:e8:9a:6f:10:b1:
                    07:d7:81:12:09:15:ca:10:a6:7a:25:5d:c9:f0:72:
                    e3:51:22:c6:e5:78:8c:b5:85:1b:d8:28:c6:2b:40:
                    b7:44:b5:11:b9:c3:de:76:48:2f:94:85:d8:ac:89:
                    b8:a5:75:12:fd:8a:71:fc:90:9a:13:03:6d:b4:33:
                    72:bc:b1:e7:aa:fb:c7:0b:ab:44:4b:d4:82:29:d9:
                    db:e1:a0:6d:4e:9a:03:fe:25:79:53:c7:12:3b:ae:
                    f3:a1:d4:c5:4d:76:31:d6:c9:c3:67:a8:be:ee:27:
                    b3:a4:3c:e0:57:d9:40:d1:4f:e4:35:7c:86:71:b2:
                    6e:7f:ae:46:12:32:cf:ca:09:16:7f:02:2c:89:d1:
                    26:82:0c:0b:c9:7c:53:7f:09:65:ae:b5:ef:51:97:
                    c8:98:4f:83:c9:be:41:01:5d:58:94:3f:50:86:03:
                    58:3f:85:bd:27:06:64:8d:dd:67:99:1f:5d:e3:9a:
                    89:06:d7:b6:42:aa:b1:e0:8e:9a:73:82:2a:fc:b1:
                    8e:5f:cf:b3:11:c8:bb:34:39:35:5d:10:85:52:13:
                    08:b9:97:71:e5:80:61:fc:a6:27:0e:40:75:6f:1d:
                    bc:8d:0e:a2:5c:29:b1:b3:95:ff:a2:2d:57:37:34:
                    7f:62:33:1a:98:96:32:14:bb:eb:e1:55:f0:65:42:
                    c9:ad:09:49:a7:18:ff:d6:6e:60:75:a2:ef:77:5d:
                    52:4f:16:6b:0a:17:6d:85:c5:15:f9:5f:e2:cd:57:
                    7e:82:7b:85:c0:2a:e6:82:e9:47:9e:f1:46:1c:06:
                    d0:61:3c:b7:04:54:b5:05:a4:ca:b7:37:64:b9:66:
                    bf:34:cb:73:0d:0f:4a:c5:af:c1:00:b1:99:81:05:
                    ec:6f:53
                Exponent: 65537 (0x10001)
        X509v3 extensions:
            X509v3 Key Usage: critical
                Digital Signature, Key Encipherment
            X509v3 Basic Constraints: 
                CA:FALSE
            X509v3 Extended Key Usage: 
                TLS Web Server Authentication, TLS Web Client Authentication
            X509v3 Subject Key Identifier: 
                19:72:A4:9D:6C:9D:A2:E0:A3:0B:CC:DC:3E:2D:F5:94:01:57:87:A6
            X509v3 Authority Key Identifier: 
                keyid:A3:9D:5A:C1:DA:0D:64:9E:55:C0:B0:1A:51:4C:0D:D9:71:3C:E3:96

            Authority Information Access: 
                CA Issuers - URI:http//tim2.xws/ca/tls-ca.cer

            X509v3 CRL Distribution Points: 

                Full Name:
                  URI:http//tim2.xws/ca/tls-ca.crl

            X509v3 Subject Alternative Name: 
                DNS:tim2.xws, DNS:host.docker.internal, DNS:localhost, DNS:eureka, IP Address:172.20.0.0, IP Address:26.206.31.193, IP Address:10.0.2.15, IP Address:192.168.1.7, IP Address:192.168.99.1, IP Address:127.0.0.1
    Signature Algorithm: sha256WithRSAEncryption
         41:ce:26:8e:f4:cf:a8:42:c7:db:1c:f5:12:30:04:bc:32:6b:
         8f:50:ad:2d:f1:bb:60:c9:71:3d:6f:5a:76:2f:9d:8f:c1:30:
         b5:db:3f:51:fa:10:62:73:67:33:c3:62:fb:a1:47:a5:bb:d4:
         85:b4:9e:a0:c7:06:b4:c2:4d:8b:45:e7:8a:a7:78:5e:8a:d8:
         c2:b6:22:c8:43:f0:a9:df:c4:b0:88:7f:98:64:ea:a0:b8:28:
         ed:95:a6:3f:c3:39:69:c7:5d:16:63:b1:3f:9d:87:ad:a5:4f:
         97:6b:e4:3e:be:7a:1c:51:b7:43:5b:11:7e:62:74:1a:d5:09:
         0e:59:8d:73:bb:07:0f:fd:4f:c3:71:ad:4f:a9:c7:57:f3:71:
         47:eb:56:3e:03:f3:55:d8:2d:29:26:18:40:94:5e:32:91:9b:
         19:c8:40:fd:9e:88:3b:7d:95:71:a9:f8:10:90:78:45:3c:af:
         40:4a:ec:f9:b6:25:5d:39:83:15:89:1c:79:06:95:52:4e:1f:
         91:22:ff:d7:10:2b:b5:0e:54:7b:6c:ab:eb:2a:35:2d:58:ab:
         59:b3:60:11:74:27:5c:3b:9f:df:78:21:5d:4c:b4:49:02:24:
         46:0c:c6:79:61:1a:0f:4f:a8:a2:b4:fe:87:ae:03:7d:82:56:
         51:43:8c:0a:10:d8:16:d3:ae:e3:f3:23:1d:29:a8:fa:c9:c4:
         de:8a:01:1c:9b:dd:8d:32:ba:9f:9e:6f:2a:05:77:08:f5:ad:
         8e:f4:14:11:b6:5f:c1:6a:3a:45:c8:db:bf:4a:10:ae:5d:d4:
         0e:73:b0:66:a9:b1:d0:1f:b4:0a:e1:ae:0f:76:df:f7:bb:67:
         dc:0a:64:b2:4c:c6:03:39:70:6f:e4:96:86:af:09:fc:ef:f1:
         37:ad:d3:d0:cf:20:c7:b5:f4:b3:09:f3:b6:ff:61:c6:f1:fe:
         f2:ea:9b:eb:18:3a:76:d4:1d:f1:4a:97:b5:33:85:43:ad:5b:
         de:c7:bc:50:29:db:08:e9:38:eb:36:6c:bb:e7:c4:8b:b6:5f:
         71:7c:62:95:b5:89:82:e9:3f:e5:17:2d:da:9c:8d:a2:61:77:
         0a:a7:4f:7e:f6:33:de:ea:e3:f4:e3:09:fd:23:09:51:30:53:
         d0:0b:41:59:6f:7e:9d:0c:26:9c:70:42:3d:01:fe:36:c7:b3:
         b4:21:1d:51:ff:b6:a9:f3:c2:79:dc:06:fc:89:56:d9:e4:a9:
         bf:94:ce:5d:cd:dd:f9:74:22:37:ee:2f:bb:c2:fd:9a:c2:94:
         88:47:63:65:e1:8f:44:2f:45:b2:57:8a:a4:1f:1f:ad:15:66:
         e6:8b:d1:e2:68:b1:4c:af
-----BEGIN CERTIFICATE-----
MIIGQzCCBCugAwIBAgIBCTANBgkqhkiG9w0BAQsFADA+MQswCQYDVQQGEwJOTzEN
MAsGA1UECgwEQlNFUDEOMAwGA1UECwwFVGltIDIxEDAOBgNVBAMMB1RpbTIgQ0Ew
HhcNMjAwNjI2MDkyNjE0WhcNMjIwNjI2MDkyNjE0WjA/MQswCQYDVQQGEwJOTzEN
MAsGA1UECgwEQlNFUDEOMAwGA1UECwwFVGltIDIxETAPBgNVBAMMCHJhYmJpdG1x
MIICIjANBgkqhkiG9w0BAQEFAAOCAg8AMIICCgKCAgEAtrF0jGtn38f4OJripHAi
Zf3zcFNVFI2c1emuu7aPuvagUCwFaNfk3zzdpGIM3qDCyhW0R4E8vDHfgfrObkCH
8cRrV7wKfsC/LhMYLDZVr7MDw6bJs/D6H47DBxybiyIuzUVc7TheZ/38Dyhp6ojC
AbfCY2r7EZnsdh4slTAsj9+70AvDKjY+/5pKEDZ72TM8v9AFSqG6PZGsGBK8NUtw
5hZmrmeikSKqZNDOrha+6JpvELEH14ESCRXKEKZ6JV3J8HLjUSLG5XiMtYUb2CjG
K0C3RLURucPedkgvlIXYrIm4pXUS/Ypx/JCaEwNttDNyvLHnqvvHC6tES9SCKdnb
4aBtTpoD/iV5U8cSO67zodTFTXYx1snDZ6i+7iezpDzgV9lA0U/kNXyGcbJuf65G
EjLPygkWfwIsidEmggwLyXxTfwllrrXvUZfImE+Dyb5BAV1YlD9QhgNYP4W9JwZk
jd1nmR9d45qJBte2Qqqx4I6ac4Iq/LGOX8+zEci7NDk1XRCFUhMIuZdx5YBh/KYn
DkB1bx28jQ6iXCmxs5X/oi1XNzR/YjMamJYyFLvr4VXwZULJrQlJpxj/1m5gdaLv
d11STxZrChdthcUV+V/izVd+gnuFwCrmgulHnvFGHAbQYTy3BFS1BaTKtzdkuWa/
NMtzDQ9Kxa/BALGZgQXsb1MCAwEAAaOCAUkwggFFMA4GA1UdDwEB/wQEAwIFoDAJ
BgNVHRMEAjAAMB0GA1UdJQQWMBQGCCsGAQUFBwMBBggrBgEFBQcDAjAdBgNVHQ4E
FgQUGXKknWydouCjC8zcPi31lAFXh6YwHwYDVR0jBBgwFoAUo51awdoNZJ5VwLAa
UUwN2XE845YwOAYIKwYBBQUHAQEELDAqMCgGCCsGAQUFBzAChhxodHRwLy90aW0y
Lnh3cy9jYS90bHMtY2EuY2VyMC0GA1UdHwQmMCQwIqAgoB6GHGh0dHAvL3RpbTIu
eHdzL2NhL3Rscy1jYS5jcmwwYAYDVR0RBFkwV4IIdGltMi54d3OCFGhvc3QuZG9j
a2VyLmludGVybmFsgglsb2NhbGhvc3SCBmV1cmVrYYcErBQAAIcEGs4fwYcECgAC
D4cEwKgBB4cEwKhjAYcEfwAAATANBgkqhkiG9w0BAQsFAAOCAgEAQc4mjvTPqELH
2xz1EjAEvDJrj1CtLfG7YMlxPW9adi+dj8Ewtds/UfoQYnNnM8Ni+6FHpbvUhbSe
oMcGtMJNi0Xniqd4XorYwrYiyEPwqd/EsIh/mGTqoLgo7ZWmP8M5acddFmOxP52H
raVPl2vkPr56HFG3Q1sRfmJ0GtUJDlmNc7sHD/1Pw3GtT6nHV/NxR+tWPgPzVdgt
KSYYQJReMpGbGchA/Z6IO32Vcan4EJB4RTyvQErs+bYlXTmDFYkceQaVUk4fkSL/
1xArtQ5Ue2yr6yo1LVirWbNgEXQnXDuf33ghXUy0SQIkRgzGeWEaD0+oorT+h64D
fYJWUUOMChDYFtOu4/MjHSmo+snE3ooBHJvdjTK6n55vKgV3CPWtjvQUEbZfwWo6
Rcjbv0oQrl3UDnOwZqmx0B+0CuGuD3bf97tn3ApkskzGAzlwb+SWhq8J/O/xN63T
0M8gx7X0swnztv9hxvH+8uqb6xg6dtQd8UqXtTOFQ61b3se8UCnbCOk46zZsu+fE
i7ZfcXxilbWJguk/5Rct2pyNomF3CqdPfvYz3urj9OMJ/SMJUTBT0AtBWW9+nQwm
nHBCPQH+NseztCEdUf+2qfPCedwG/IlW2eSpv5TOXc3d+XQiN+4vu8L9msKUiEdj
ZeGPRC9FsleKpB8frRVm5ovR4mixTK8=
-----END CERTIFICATE-----
