Certificate:
    Data:
        Version: 3 (0x2)
        Serial Number: 8 (0x8)
    Signature Algorithm: sha256WithRSAEncryption
        Issuer: C=NO, O=BSEP, OU=Tim 2, CN=Tim2 CA
        Validity
            Not Before: Jun 20 12:48:05 2020 GMT
            Not After : Jun 20 12:48:05 2022 GMT
        Subject: C=NO, O=BSEP, OU=Tim 2, CN=rabbitmq
        Subject Public Key Info:
            Public Key Algorithm: rsaEncryption
                Public-Key: (4096 bit)
                Modulus:
                    00:dd:ed:d0:93:ec:23:28:af:b8:af:b7:82:7c:49:
                    de:28:b9:32:77:97:1f:3c:a6:72:94:fe:6d:54:a2:
                    5b:00:84:57:ed:dc:18:37:37:2b:71:74:a0:e0:1b:
                    52:ae:c7:0a:0f:5c:9c:47:30:f5:c2:6c:ea:c9:a6:
                    c6:7e:e5:0b:b3:9e:7c:ac:b5:c9:cd:ed:dd:ff:37:
                    94:b7:fc:0d:fa:b0:a3:e0:aa:7a:6d:57:9d:f9:d6:
                    81:3b:b7:c7:46:06:67:db:71:d3:21:c5:9f:0b:3c:
                    01:00:7d:13:a1:30:5d:3d:a2:02:56:d4:57:3d:f7:
                    93:0c:da:ee:82:4b:bd:f5:54:40:32:bf:0e:4b:e2:
                    fd:f9:c1:24:8e:82:43:80:93:d2:c8:1e:4c:38:a6:
                    4e:b1:3d:ac:1c:4f:59:b2:4b:0e:24:a2:d1:9e:3f:
                    1d:64:76:9b:e0:f5:77:e9:c5:a9:e3:ae:ba:59:13:
                    9b:e2:51:a7:2e:d2:35:00:7d:b0:09:a5:30:c0:aa:
                    a0:8f:0c:ba:04:51:b0:4f:3c:9a:c1:b9:5e:4a:af:
                    b5:17:92:2e:5a:74:6b:76:8d:2a:e9:64:01:02:b5:
                    51:36:08:b9:5c:2c:ad:e3:46:60:ee:1d:08:6c:db:
                    8d:28:c3:25:79:ea:3a:f0:e3:77:a2:f9:6a:2f:29:
                    bb:9c:be:24:d8:5b:57:77:db:6a:a0:6d:bf:bc:8a:
                    d6:d1:e7:3b:5e:26:8a:ef:f2:90:9a:3d:c2:d3:bc:
                    dc:45:40:4b:1a:fa:a2:66:4e:3e:fc:33:23:46:53:
                    07:51:24:89:3d:f6:bf:21:61:0e:be:79:35:50:3c:
                    2c:f5:6d:34:b7:66:d6:86:7f:ea:51:f8:c9:ac:99:
                    98:2b:ab:92:b2:45:78:9e:62:8f:40:53:4d:64:a6:
                    13:65:c2:8a:17:11:67:52:21:00:12:07:f0:96:67:
                    33:2a:1c:b7:ce:9d:e1:15:82:74:3a:79:2e:a2:01:
                    c3:b6:91:d5:ad:19:58:4a:70:2f:b3:a1:ba:79:18:
                    bf:9c:57:e5:d2:39:ad:64:90:1a:8b:62:39:73:34:
                    ab:0a:af:c9:7b:b4:de:2a:13:d4:9d:c0:b7:c0:21:
                    94:3e:43:36:6a:86:b0:0f:e9:b4:b0:00:60:ba:46:
                    64:04:fb:e9:ed:31:bb:25:54:8f:af:73:e1:c2:2e:
                    e4:21:ad:52:b5:25:0f:72:58:f2:d1:29:a2:58:db:
                    cd:04:7f:0c:f2:9d:4d:4c:43:64:21:68:5a:9f:27:
                    9d:ee:56:1f:1d:cc:eb:77:f0:be:d4:d0:2d:33:c6:
                    4a:9b:47:bb:53:13:79:77:20:41:8a:f0:48:1d:4e:
                    ff:f4:05
                Exponent: 65537 (0x10001)
        X509v3 extensions:
            X509v3 Key Usage: critical
                Digital Signature, Key Encipherment
            X509v3 Basic Constraints: 
                CA:FALSE
            X509v3 Extended Key Usage: 
                TLS Web Server Authentication, TLS Web Client Authentication
            X509v3 Subject Key Identifier: 
                D5:F0:F6:08:5A:C7:1C:87:56:74:20:48:7C:59:CE:A5:B2:78:63:20
            X509v3 Authority Key Identifier: 
                keyid:AB:ED:25:FE:54:00:34:9F:1D:AB:8F:4F:89:06:B2:48:6F:04:6D:67

            Authority Information Access: 
                CA Issuers - URI:http//tim2.xws/ca/tls-ca.cer

            X509v3 CRL Distribution Points: 

                Full Name:
                  URI:http//tim2.xws/ca/tls-ca.crl

            X509v3 Subject Alternative Name: 
                DNS:tim2.xws, DNS:host.docker.internal, DNS:localhost, DNS:eureka, IP Address:172.20.0.0, IP Address:26.206.31.193, IP Address:10.0.2.15, IP Address:192.168.1.7, IP Address:192.168.99.1, IP Address:127.0.0.1
    Signature Algorithm: sha256WithRSAEncryption
         a3:17:5b:4d:e1:52:32:ff:9a:c9:18:31:85:0c:17:89:ea:51:
         63:aa:cd:cf:03:5d:0f:a6:98:84:34:86:c2:24:c7:ba:22:95:
         00:ee:fc:22:4f:00:c1:77:a3:6f:d0:42:66:fe:9c:23:e7:fc:
         72:7f:7b:6c:75:db:28:32:ab:4f:0b:77:7f:82:7a:18:5e:f2:
         7b:e4:07:dd:b7:de:87:8f:b8:9b:8e:3e:7b:84:97:b4:af:df:
         a8:80:0e:bf:9f:c9:73:e8:38:b8:8c:43:f9:e2:d3:5c:f3:c3:
         a6:76:68:73:29:5c:82:7b:ab:70:52:5b:88:98:62:2d:6f:5c:
         2d:26:3e:f3:4f:01:04:0a:c9:aa:67:65:20:8d:42:ac:38:1b:
         33:f1:ab:79:00:44:9c:ee:bd:3b:2a:33:d5:ab:f4:96:db:59:
         e9:29:0e:84:0b:76:e1:e4:ad:6a:7b:60:77:01:75:58:34:28:
         43:73:b8:7d:b9:12:74:08:03:07:c3:2e:34:98:5b:d4:a8:26:
         63:5a:e4:7f:f1:7c:c2:3c:4d:fe:2f:ce:35:58:ba:b9:de:e0:
         b4:e4:4b:fa:01:99:11:e4:dd:8c:7d:36:32:81:27:ee:58:79:
         73:e0:7f:49:91:28:4e:18:b1:d6:f3:ee:1e:49:fa:83:50:25:
         c0:f1:d9:12:62:67:7e:94:52:89:b8:db:c4:8f:81:42:1e:fc:
         d7:64:2b:56:6b:f0:f2:51:7c:50:0c:ec:76:be:ee:b3:8a:10:
         a8:40:a2:2b:30:aa:92:27:6c:73:ff:5d:06:c0:de:cd:c8:c1:
         bd:2c:0f:b8:5e:23:46:55:99:24:cd:ff:02:83:17:a8:ac:a9:
         c9:ac:1e:b4:20:62:bb:7e:86:60:fa:ee:f3:7d:1a:07:47:8e:
         4b:c6:b5:38:30:95:fe:92:8e:e2:e0:a9:4b:f6:80:6f:ac:0b:
         1f:27:4a:56:b5:70:96:cd:14:67:7e:2f:2a:e1:e4:d0:1e:38:
         8a:a7:75:55:c7:c4:c5:e6:1c:84:d1:a0:89:be:01:33:ec:01:
         6a:51:86:d2:0a:cb:d6:7c:ee:b7:51:3d:eb:9d:25:0a:cc:39:
         4a:c7:e2:f1:51:27:6e:d9:6e:96:14:8f:58:8d:a7:99:9b:9d:
         c4:44:b3:c2:a8:57:49:49:87:3c:73:f8:32:25:d2:73:1d:3d:
         fb:23:1a:48:8b:6b:49:05:fd:36:c7:08:5d:65:74:2c:fe:eb:
         e0:d2:b6:50:ce:fc:8e:af:10:79:54:b9:9c:83:e2:f1:98:96:
         0a:1a:76:17:28:a1:75:e2:e4:4c:df:dd:68:db:f2:21:41:27:
         3d:be:e7:40:64:6a:8c:da
-----BEGIN CERTIFICATE-----
MIIGQzCCBCugAwIBAgIBCDANBgkqhkiG9w0BAQsFADA+MQswCQYDVQQGEwJOTzEN
MAsGA1UECgwEQlNFUDEOMAwGA1UECwwFVGltIDIxEDAOBgNVBAMMB1RpbTIgQ0Ew
HhcNMjAwNjIwMTI0ODA1WhcNMjIwNjIwMTI0ODA1WjA/MQswCQYDVQQGEwJOTzEN
MAsGA1UECgwEQlNFUDEOMAwGA1UECwwFVGltIDIxETAPBgNVBAMMCHJhYmJpdG1x
MIICIjANBgkqhkiG9w0BAQEFAAOCAg8AMIICCgKCAgEA3e3Qk+wjKK+4r7eCfEne
KLkyd5cfPKZylP5tVKJbAIRX7dwYNzcrcXSg4BtSrscKD1ycRzD1wmzqyabGfuUL
s558rLXJze3d/zeUt/wN+rCj4Kp6bVed+daBO7fHRgZn23HTIcWfCzwBAH0ToTBd
PaICVtRXPfeTDNrugku99VRAMr8OS+L9+cEkjoJDgJPSyB5MOKZOsT2sHE9ZsksO
JKLRnj8dZHab4PV36cWp4666WROb4lGnLtI1AH2wCaUwwKqgjwy6BFGwTzyawble
Sq+1F5IuWnRrdo0q6WQBArVRNgi5XCyt40Zg7h0IbNuNKMMleeo68ON3ovlqLym7
nL4k2FtXd9tqoG2/vIrW0ec7XiaK7/KQmj3C07zcRUBLGvqiZk4+/DMjRlMHUSSJ
Pfa/IWEOvnk1UDws9W00t2bWhn/qUfjJrJmYK6uSskV4nmKPQFNNZKYTZcKKFxFn
UiEAEgfwlmczKhy3zp3hFYJ0OnkuogHDtpHVrRlYSnAvs6G6eRi/nFfl0jmtZJAa
i2I5czSrCq/Je7TeKhPUncC3wCGUPkM2aoawD+m0sABgukZkBPvp7TG7JVSPr3Ph
wi7kIa1StSUPcljy0SmiWNvNBH8M8p1NTENkIWhanyed7lYfHczrd/C+1NAtM8ZK
m0e7UxN5dyBBivBIHU7/9AUCAwEAAaOCAUkwggFFMA4GA1UdDwEB/wQEAwIFoDAJ
BgNVHRMEAjAAMB0GA1UdJQQWMBQGCCsGAQUFBwMBBggrBgEFBQcDAjAdBgNVHQ4E
FgQU1fD2CFrHHIdWdCBIfFnOpbJ4YyAwHwYDVR0jBBgwFoAUq+0l/lQANJ8dq49P
iQaySG8EbWcwOAYIKwYBBQUHAQEELDAqMCgGCCsGAQUFBzAChhxodHRwLy90aW0y
Lnh3cy9jYS90bHMtY2EuY2VyMC0GA1UdHwQmMCQwIqAgoB6GHGh0dHAvL3RpbTIu
eHdzL2NhL3Rscy1jYS5jcmwwYAYDVR0RBFkwV4IIdGltMi54d3OCFGhvc3QuZG9j
a2VyLmludGVybmFsgglsb2NhbGhvc3SCBmV1cmVrYYcErBQAAIcEGs4fwYcECgAC
D4cEwKgBB4cEwKhjAYcEfwAAATANBgkqhkiG9w0BAQsFAAOCAgEAoxdbTeFSMv+a
yRgxhQwXiepRY6rNzwNdD6aYhDSGwiTHuiKVAO78Ik8AwXejb9BCZv6cI+f8cn97
bHXbKDKrTwt3f4J6GF7ye+QH3bfeh4+4m44+e4SXtK/fqIAOv5/Jc+g4uIxD+eLT
XPPDpnZocylcgnurcFJbiJhiLW9cLSY+808BBArJqmdlII1CrDgbM/GreQBEnO69
Oyoz1av0lttZ6SkOhAt24eStantgdwF1WDQoQ3O4fbkSdAgDB8MuNJhb1KgmY1rk
f/F8wjxN/i/ONVi6ud7gtORL+gGZEeTdjH02MoEn7lh5c+B/SZEoThix1vPuHkn6
g1AlwPHZEmJnfpRSibjbxI+BQh7812QrVmvw8lF8UAzsdr7us4oQqECiKzCqkids
c/9dBsDezcjBvSwPuF4jRlWZJM3/AoMXqKypyawetCBiu36GYPru830aB0eOS8a1
ODCV/pKO4uCpS/aAb6wLHydKVrVwls0UZ34vKuHk0B44iqd1VcfExeYchNGgib4B
M+wBalGG0grL1nzut1E9650lCsw5Ssfi8VEnbtlulhSPWI2nmZudxESzwqhXSUmH
PHP4MiXScx09+yMaSItrSQX9NscIXWV0LP7r4NK2UM78jq8QeVS5nIPi8ZiWChp2
FyihdeLkTN/daNvyIUEnPb7nQGRqjNo=
-----END CERTIFICATE-----
