Certificate:
    Data:
        Version: 3 (0x2)
        Serial Number: 2 (0x2)
    Signature Algorithm: sha256WithRSAEncryption
        Issuer: C=NO, O=BSEP, OU=Tim 2, CN=Tim2 Root CA
        Validity
            Not Before: Jun 20 12:47:58 2020 GMT
            Not After : Jun 20 12:47:58 2030 GMT
        Subject: C=NO, O=BSEP, OU=Tim 2, CN=Tim2 CA
        Subject Public Key Info:
            Public Key Algorithm: rsaEncryption
                Public-Key: (4096 bit)
                Modulus:
                    00:ed:40:57:ff:81:42:81:99:d5:b8:26:00:3e:a2:
                    c8:3b:4f:2d:66:24:3e:cd:6c:df:fd:40:44:a7:5a:
                    68:5e:72:e4:72:77:9a:94:1b:e6:37:6f:51:8d:3f:
                    70:7a:ca:bb:d2:6d:13:45:7e:47:38:f0:19:ce:fc:
                    66:e3:00:60:17:f9:02:68:00:b4:63:73:ff:4b:76:
                    65:13:70:1d:10:b0:bc:e8:cc:cf:68:db:c0:25:05:
                    25:47:70:79:01:db:e1:b5:bb:72:ec:1b:77:cc:b7:
                    59:78:d2:0f:23:56:72:a4:3d:86:c0:07:6d:3a:1d:
                    d3:e2:21:c2:b6:4c:e8:94:e6:c0:57:a0:92:67:3e:
                    09:ec:05:a9:dc:0f:19:57:96:11:ea:91:df:00:a7:
                    98:3d:12:cb:b8:05:88:23:93:3f:a7:ae:0f:14:2c:
                    0d:11:da:62:e0:1a:df:77:e2:ba:5c:a9:7e:dd:a3:
                    f5:8b:f5:0e:0d:91:30:4d:2f:ff:f9:b5:99:2b:b0:
                    58:33:09:84:25:6b:04:8a:5a:e4:e5:11:b4:14:68:
                    7e:82:a4:cc:b4:83:c8:d0:ef:83:46:ca:67:48:1b:
                    78:b4:81:ff:14:ed:a1:ca:e9:6e:2d:18:ce:24:20:
                    0e:2f:4f:e5:9f:79:7b:90:35:05:b1:6e:22:d3:77:
                    57:c0:d2:c7:a6:08:e3:99:cc:83:93:b4:45:3a:24:
                    47:e2:f4:5e:96:0d:94:c1:85:de:6a:fa:89:e6:90:
                    1a:65:91:c8:04:12:58:b7:1d:22:59:13:e9:2c:15:
                    ed:82:d5:1d:30:a8:43:14:68:2e:5e:97:4f:98:66:
                    f1:bf:82:cc:98:7c:ab:72:9f:68:ce:87:41:44:18:
                    30:6c:3f:b2:49:52:2a:3d:c0:9c:83:53:93:de:00:
                    0f:3f:85:44:7c:6d:0a:de:89:88:bb:70:3c:91:b2:
                    e8:98:a1:4d:9a:44:a6:61:7e:40:32:39:f2:e2:b6:
                    9e:46:c2:db:49:bb:86:9b:2c:2b:9f:82:be:fb:31:
                    f2:15:b3:20:15:87:c1:04:16:ca:1b:50:7f:5d:0b:
                    30:2a:cf:25:ed:e3:4f:cc:d8:93:52:f5:f0:55:fe:
                    41:31:13:ae:49:a1:bd:ea:88:4f:cd:cd:31:d2:ea:
                    33:8b:29:ff:8c:1e:9a:02:c3:09:50:dd:f0:0c:99:
                    6a:05:25:ea:82:5f:a6:8c:ee:6e:8d:0f:b3:42:89:
                    4c:33:ba:28:c0:18:46:0c:43:37:c6:f9:99:3c:1d:
                    70:5e:0d:ad:9e:7c:3d:c5:a2:0e:a1:8a:58:d0:88:
                    b6:b6:3e:95:5d:2f:ff:73:55:86:fd:db:1f:4e:96:
                    25:c8:7b
                Exponent: 65537 (0x10001)
        X509v3 extensions:
            X509v3 Key Usage: critical
                Certificate Sign, CRL Sign
            X509v3 Basic Constraints: critical
                CA:TRUE, pathlen:0
            X509v3 Subject Key Identifier: 
                AB:ED:25:FE:54:00:34:9F:1D:AB:8F:4F:89:06:B2:48:6F:04:6D:67
            X509v3 Authority Key Identifier: 
                keyid:B9:9C:00:5D:05:D0:19:E0:59:88:E2:3B:BF:CB:C4:7D:84:82:25:07

            Authority Information Access: 
                CA Issuers - URI:http//tim2.xws/ca/root-ca.cer

            X509v3 CRL Distribution Points: 

                Full Name:
                  URI:http//tim2.xws/ca/root-ca.crl

    Signature Algorithm: sha256WithRSAEncryption
         bb:2f:71:a3:5d:fb:89:41:8d:73:2e:6b:45:4d:5a:67:ab:6a:
         5d:77:57:5c:fe:40:4c:64:0f:20:1b:25:11:63:08:92:be:52:
         a6:f7:7d:b4:8a:0d:44:f2:32:d5:ca:ae:16:83:cc:7f:0d:f2:
         44:24:ae:a8:bb:b8:11:5f:a9:4f:e2:c7:28:6c:04:1d:1c:46:
         9d:fa:a8:73:74:67:68:64:1a:f9:61:e2:d0:10:69:97:25:95:
         28:04:19:22:b5:c1:fd:24:aa:59:c8:08:86:7a:16:20:18:fc:
         04:58:cb:c5:3b:73:f3:3b:1f:32:0a:26:11:0c:d6:dd:f6:04:
         c0:9d:fe:b7:df:a2:fb:32:a1:14:d7:96:8c:6d:c8:68:68:c1:
         44:16:47:97:05:27:fa:ef:b4:ba:1c:c4:59:bc:ee:89:4e:12:
         dd:b8:a7:89:60:38:4b:d8:f8:7b:b7:df:71:f4:15:29:07:98:
         72:11:0d:65:da:31:3f:c3:87:cf:26:d6:4c:ee:d7:3d:92:ed:
         7f:00:62:60:56:36:e5:a9:42:d9:84:d2:86:53:34:41:b1:c3:
         f6:f7:6c:65:d2:3e:21:0f:29:73:b2:03:d0:05:a4:71:2d:e8:
         50:4a:76:73:ea:46:03:6c:9a:2f:8f:63:f2:39:8a:9b:5f:30:
         2f:d1:91:36:f1:56:cd:e5:1b:ee:25:b1:c9:2c:52:25:34:3f:
         83:a4:4d:80:1a:b4:8a:8e:f3:38:aa:ae:8a:5f:54:b5:a2:89:
         7e:9a:ef:6d:4d:19:99:de:93:6e:85:5d:3f:c1:7e:60:42:61:
         d5:ad:cd:1b:d1:02:d0:ea:65:29:33:2b:de:8f:d8:81:7f:3e:
         2a:52:13:26:e6:22:40:b6:52:64:f8:a9:d8:e0:62:51:60:c4:
         cb:13:a3:02:c3:d0:dd:5f:74:26:95:f0:6f:b4:81:56:3e:50:
         0b:c5:92:c3:2a:b5:b0:a9:ca:f7:93:26:aa:37:56:e5:e5:fa:
         05:d9:ff:a1:d4:ff:6f:51:e6:ef:c9:63:23:31:2f:68:10:f9:
         7d:07:0a:a5:94:e5:45:bd:f5:40:f9:59:87:6d:ea:4d:d0:60:
         34:72:37:49:dc:5c:98:70:6d:f7:f9:d6:79:a3:01:6a:c5:c3:
         1b:49:60:6d:7f:18:7e:8a:e8:8a:4a:7c:39:8d:a0:9e:a1:50:
         50:84:98:94:d7:b1:b7:b6:97:d6:6b:45:20:4a:16:36:5b:dc:
         a3:c9:1f:c6:a1:71:9e:b8:ea:43:77:e1:5d:ec:e4:0e:ef:7a:
         e4:d9:30:7a:f1:15:f4:f4:04:4c:23:45:8a:77:5d:a7:26:d4:
         28:aa:28:87:3e:34:9d:3d
-----BEGIN CERTIFICATE-----
MIIFzzCCA7egAwIBAgIBAjANBgkqhkiG9w0BAQsFADBDMQswCQYDVQQGEwJOTzEN
MAsGA1UECgwEQlNFUDEOMAwGA1UECwwFVGltIDIxFTATBgNVBAMMDFRpbTIgUm9v
dCBDQTAeFw0yMDA2MjAxMjQ3NThaFw0zMDA2MjAxMjQ3NThaMD4xCzAJBgNVBAYT
Ak5PMQ0wCwYDVQQKDARCU0VQMQ4wDAYDVQQLDAVUaW0gMjEQMA4GA1UEAwwHVGlt
MiBDQTCCAiIwDQYJKoZIhvcNAQEBBQADggIPADCCAgoCggIBAO1AV/+BQoGZ1bgm
AD6iyDtPLWYkPs1s3/1ARKdaaF5y5HJ3mpQb5jdvUY0/cHrKu9JtE0V+RzjwGc78
ZuMAYBf5AmgAtGNz/0t2ZRNwHRCwvOjMz2jbwCUFJUdweQHb4bW7cuwbd8y3WXjS
DyNWcqQ9hsAHbTod0+IhwrZM6JTmwFegkmc+CewFqdwPGVeWEeqR3wCnmD0Sy7gF
iCOTP6euDxQsDRHaYuAa33fiulypft2j9Yv1Dg2RME0v//m1mSuwWDMJhCVrBIpa
5OURtBRofoKkzLSDyNDvg0bKZ0gbeLSB/xTtocrpbi0YziQgDi9P5Z95e5A1BbFu
ItN3V8DSx6YI45nMg5O0RTokR+L0XpYNlMGF3mr6ieaQGmWRyAQSWLcdIlkT6SwV
7YLVHTCoQxRoLl6XT5hm8b+CzJh8q3KfaM6HQUQYMGw/sklSKj3AnINTk94ADz+F
RHxtCt6JiLtwPJGy6JihTZpEpmF+QDI58uK2nkbC20m7hpssK5+Cvvsx8hWzIBWH
wQQWyhtQf10LMCrPJe3jT8zYk1L18FX+QTETrkmhveqIT83NMdLqM4sp/4wemgLD
CVDd8AyZagUl6oJfpozubo0Ps0KJTDO6KMAYRgxDN8b5mTwdcF4NrZ58PcWiDqGK
WNCItrY+lV0v/3NVhv3bH06WJch7AgMBAAGjgdIwgc8wDgYDVR0PAQH/BAQDAgEG
MBIGA1UdEwEB/wQIMAYBAf8CAQAwHQYDVR0OBBYEFKvtJf5UADSfHauPT4kGskhv
BG1nMB8GA1UdIwQYMBaAFLmcAF0F0BngWYjiO7/LxH2EgiUHMDkGCCsGAQUFBwEB
BC0wKzApBggrBgEFBQcwAoYdaHR0cC8vdGltMi54d3MvY2Evcm9vdC1jYS5jZXIw
LgYDVR0fBCcwJTAjoCGgH4YdaHR0cC8vdGltMi54d3MvY2Evcm9vdC1jYS5jcmww
DQYJKoZIhvcNAQELBQADggIBALsvcaNd+4lBjXMua0VNWmeral13V1z+QExkDyAb
JRFjCJK+Uqb3fbSKDUTyMtXKrhaDzH8N8kQkrqi7uBFfqU/ixyhsBB0cRp36qHN0
Z2hkGvlh4tAQaZcllSgEGSK1wf0kqlnICIZ6FiAY/ARYy8U7c/M7HzIKJhEM1t32
BMCd/rffovsyoRTXloxtyGhowUQWR5cFJ/rvtLocxFm87olOEt24p4lgOEvY+Hu3
33H0FSkHmHIRDWXaMT/Dh88m1kzu1z2S7X8AYmBWNuWpQtmE0oZTNEGxw/b3bGXS
PiEPKXOyA9AFpHEt6FBKdnPqRgNsmi+PY/I5iptfMC/RkTbxVs3lG+4lscksUiU0
P4OkTYAatIqO8ziqropfVLWiiX6a721NGZnek26FXT/BfmBCYdWtzRvRAtDqZSkz
K96P2IF/PipSEybmIkC2UmT4qdjgYlFgxMsTowLD0N1fdCaV8G+0gVY+UAvFksMq
tbCpyveTJqo3VuXl+gXZ/6HU/29R5u/JYyMxL2gQ+X0HCqWU5UW99UD5WYdt6k3Q
YDRyN0ncXJhwbff51nmjAWrFwxtJYG1/GH6K6IpKfDmNoJ6hUFCEmJTXsbe2l9Zr
RSBKFjZb3KPJH8ahcZ646kN34V3s5A7veuTZMHrxFfT0BEwjRYp3Xacm1CiqKIc+
NJ09
-----END CERTIFICATE-----
Certificate:
    Data:
        Version: 3 (0x2)
        Serial Number: 1 (0x1)
    Signature Algorithm: sha256WithRSAEncryption
        Issuer: C=NO, O=BSEP, OU=Tim 2, CN=Tim2 Root CA
        Validity
            Not Before: Jun 20 12:47:57 2020 GMT
            Not After : Jun 20 12:47:57 2030 GMT
        Subject: C=NO, O=BSEP, OU=Tim 2, CN=Tim2 Root CA
        Subject Public Key Info:
            Public Key Algorithm: rsaEncryption
                Public-Key: (4096 bit)
                Modulus:
                    00:c1:df:3e:95:2f:10:ae:88:ed:74:28:76:47:83:
                    05:a2:f7:e2:03:f4:c1:22:31:b0:7c:32:9b:39:9f:
                    6f:be:da:16:42:cc:22:78:c6:08:4b:6e:23:75:4c:
                    37:61:a1:0c:8f:cd:8b:a6:c9:ca:0a:cd:38:37:48:
                    54:ee:6f:8c:7b:14:72:5d:1e:6b:4e:6d:44:4a:43:
                    7d:10:77:a2:56:ea:49:fe:9d:8f:39:4d:bc:56:19:
                    6f:2b:ea:d6:c8:42:c2:31:4e:72:25:4d:e4:c3:99:
                    1e:e9:d3:24:09:63:af:89:6b:79:a1:97:5c:5d:f4:
                    2b:fb:ae:6b:86:28:0d:a9:7d:b0:b6:30:f2:8b:c5:
                    a1:12:e9:dc:c7:c6:4e:91:9e:cb:18:39:55:b9:a0:
                    7c:06:e7:29:ee:ca:a4:43:14:34:8d:80:c8:cf:c7:
                    f2:a2:44:14:cf:26:ec:91:fd:70:12:fa:18:b9:07:
                    65:1b:d8:7f:51:23:fc:f9:37:5c:e0:40:92:50:79:
                    21:61:8d:16:ba:78:7f:90:f1:f5:e6:c5:5a:e7:ba:
                    50:cc:67:45:d6:af:52:e2:36:0b:33:d5:f1:83:cb:
                    e8:9b:41:09:3a:74:f8:20:5a:27:e2:b5:b5:9d:f5:
                    f6:8b:bd:16:bf:7a:46:6b:56:e4:f9:f6:41:b1:38:
                    0e:d6:02:f0:95:b0:4a:f0:11:46:35:5e:98:83:1e:
                    e3:83:c1:be:d3:0a:c3:21:88:dd:49:22:b6:08:d7:
                    3b:ca:d7:fc:c4:ba:24:10:db:94:15:3f:bc:83:f4:
                    d5:5b:7b:51:b9:93:da:e3:f5:2f:da:be:6b:43:b6:
                    77:51:4e:5f:d1:71:c7:c0:7f:8a:cf:30:14:35:ab:
                    9c:11:d7:c7:e1:9e:6f:03:36:8e:5b:53:99:41:67:
                    9e:fc:53:30:a6:99:09:46:40:a8:02:21:5b:7c:12:
                    f7:d7:d0:3b:cc:ee:d2:56:3e:b8:d3:43:fc:a5:b7:
                    0e:01:37:9d:55:fb:44:a7:9c:8e:56:62:24:e5:e4:
                    7b:57:6b:96:9d:4a:31:8d:97:0b:2a:7f:7c:75:3b:
                    68:97:03:75:88:7a:7f:ec:1b:d2:f7:c8:0f:e4:7f:
                    84:43:f2:4a:0e:92:81:eb:cd:98:17:a4:e3:1e:c3:
                    85:ee:06:3e:fe:f5:1a:78:cb:cd:20:b3:2c:42:c5:
                    df:0d:9b:bf:31:46:62:96:f4:aa:18:d6:f4:4b:54:
                    71:dc:6d:e1:2f:65:1f:c5:c8:50:cd:f1:35:28:ce:
                    ed:ff:20:6d:d2:f0:ee:3b:3a:ea:ee:bb:1c:53:23:
                    76:a6:13:c6:38:46:6c:bc:49:99:62:1a:10:07:68:
                    47:98:bd
                Exponent: 65537 (0x10001)
        X509v3 extensions:
            X509v3 Key Usage: critical
                Certificate Sign, CRL Sign
            X509v3 Basic Constraints: critical
                CA:TRUE
            X509v3 Subject Key Identifier: 
                B9:9C:00:5D:05:D0:19:E0:59:88:E2:3B:BF:CB:C4:7D:84:82:25:07
            X509v3 Authority Key Identifier: 
                keyid:B9:9C:00:5D:05:D0:19:E0:59:88:E2:3B:BF:CB:C4:7D:84:82:25:07

    Signature Algorithm: sha256WithRSAEncryption
         24:d7:70:7d:b1:ac:5b:34:de:24:2f:f4:44:33:47:ee:36:d1:
         a4:1b:0c:03:38:f0:b1:40:7b:77:ef:2f:06:62:48:97:90:cd:
         00:fc:72:d1:2b:68:dc:a3:e7:21:a7:5b:a9:ad:4c:e9:3e:17:
         22:64:aa:68:95:86:4b:a2:c5:47:b5:59:f1:0f:05:94:4e:dc:
         db:4e:fc:58:d1:3c:8a:a4:2f:a5:85:45:8e:82:70:7e:03:96:
         58:74:9f:8a:1d:5b:09:a4:e7:e0:f2:69:9f:bf:62:8e:82:e4:
         c9:4d:0e:a8:31:3e:fc:9d:c7:b9:4b:e2:ac:18:ec:b2:2f:23:
         e6:4d:43:b1:16:0b:f1:d8:77:18:74:01:38:b7:f3:fd:c7:4d:
         ed:88:51:c2:dd:22:b7:83:05:4e:d0:6e:f7:7b:29:4a:09:c8:
         c0:16:a5:7b:f6:5f:5a:5d:2c:89:e4:14:b9:dc:9b:80:71:f6:
         7d:d6:80:30:2c:49:aa:37:8f:5f:66:d1:e4:b6:7c:3a:7a:47:
         a3:dd:5a:06:2c:44:ac:54:18:7b:d0:41:8f:80:e8:01:72:d9:
         6a:da:57:29:99:a8:57:6f:cf:0c:44:8f:e0:4a:3b:e7:92:2d:
         8d:29:72:24:87:5c:2f:19:86:56:b0:48:d0:c0:02:fd:ae:6a:
         3b:14:bc:1a:fc:1e:49:65:0e:c3:41:e9:bb:e4:e9:6c:75:b6:
         f7:bd:5b:b7:95:c2:2c:90:4a:d0:04:29:d1:f1:ae:fd:31:08:
         69:82:80:d0:d1:19:23:55:9e:de:ff:63:4f:fc:98:34:c4:24:
         a3:cf:ca:12:4c:5a:ae:dc:20:ae:45:52:37:b8:1c:65:0e:4c:
         1d:25:0c:f4:06:b5:a9:94:49:20:36:42:28:bb:92:f1:f6:a7:
         4c:97:5b:39:59:47:ee:8d:f1:99:21:98:39:a2:cd:81:e1:41:
         cc:71:c6:da:3c:2c:cd:1d:0f:94:ac:0e:c8:91:28:23:f4:e3:
         6c:1a:19:e2:6f:d4:9d:76:4f:ea:48:96:fd:37:16:3b:4e:49:
         f3:c9:d0:89:ba:4f:95:79:d8:ea:eb:ac:e1:83:54:23:88:51:
         7a:b5:8f:9b:b7:66:f5:dd:72:7d:8b:4e:ec:60:e1:8c:df:71:
         b9:d3:8f:59:12:1a:97:9f:01:e7:6c:fb:e5:ab:48:37:70:aa:
         51:79:06:08:1a:fe:c6:6e:54:f2:c9:61:78:c3:2c:ab:8e:bb:
         ae:5b:1e:ce:71:34:f5:23:16:dc:8e:fc:47:46:02:c1:99:e2:
         b0:ce:a8:61:09:dd:54:ef:c2:9e:80:b8:70:93:a4:cb:73:82:
         c7:f5:e5:16:f2:65:24:a5
-----BEGIN CERTIFICATE-----
MIIFZDCCA0ygAwIBAgIBATANBgkqhkiG9w0BAQsFADBDMQswCQYDVQQGEwJOTzEN
MAsGA1UECgwEQlNFUDEOMAwGA1UECwwFVGltIDIxFTATBgNVBAMMDFRpbTIgUm9v
dCBDQTAeFw0yMDA2MjAxMjQ3NTdaFw0zMDA2MjAxMjQ3NTdaMEMxCzAJBgNVBAYT
Ak5PMQ0wCwYDVQQKDARCU0VQMQ4wDAYDVQQLDAVUaW0gMjEVMBMGA1UEAwwMVGlt
MiBSb290IENBMIICIjANBgkqhkiG9w0BAQEFAAOCAg8AMIICCgKCAgEAwd8+lS8Q
rojtdCh2R4MFovfiA/TBIjGwfDKbOZ9vvtoWQswieMYIS24jdUw3YaEMj82LpsnK
Cs04N0hU7m+MexRyXR5rTm1ESkN9EHeiVupJ/p2POU28VhlvK+rWyELCMU5yJU3k
w5ke6dMkCWOviWt5oZdcXfQr+65rhigNqX2wtjDyi8WhEuncx8ZOkZ7LGDlVuaB8
Bucp7sqkQxQ0jYDIz8fyokQUzybskf1wEvoYuQdlG9h/USP8+Tdc4ECSUHkhYY0W
unh/kPH15sVa57pQzGdF1q9S4jYLM9Xxg8vom0EJOnT4IFon4rW1nfX2i70Wv3pG
a1bk+fZBsTgO1gLwlbBK8BFGNV6Ygx7jg8G+0wrDIYjdSSK2CNc7ytf8xLokENuU
FT+8g/TVW3tRuZPa4/Uv2r5rQ7Z3UU5f0XHHwH+KzzAUNaucEdfH4Z5vAzaOW1OZ
QWee/FMwppkJRkCoAiFbfBL319A7zO7SVj6400P8pbcOATedVftEp5yOVmIk5eR7
V2uWnUoxjZcLKn98dTtolwN1iHp/7BvS98gP5H+EQ/JKDpKB682YF6TjHsOF7gY+
/vUaeMvNILMsQsXfDZu/MUZilvSqGNb0S1Rx3G3hL2UfxchQzfE1KM7t/yBt0vDu
Ozrq7rscUyN2phPGOEZsvEmZYhoQB2hHmL0CAwEAAaNjMGEwDgYDVR0PAQH/BAQD
AgEGMA8GA1UdEwEB/wQFMAMBAf8wHQYDVR0OBBYEFLmcAF0F0BngWYjiO7/LxH2E
giUHMB8GA1UdIwQYMBaAFLmcAF0F0BngWYjiO7/LxH2EgiUHMA0GCSqGSIb3DQEB
CwUAA4ICAQAk13B9saxbNN4kL/REM0fuNtGkGwwDOPCxQHt37y8GYkiXkM0A/HLR
K2jco+chp1uprUzpPhciZKpolYZLosVHtVnxDwWUTtzbTvxY0TyKpC+lhUWOgnB+
A5ZYdJ+KHVsJpOfg8mmfv2KOguTJTQ6oMT78nce5S+KsGOyyLyPmTUOxFgvx2HcY
dAE4t/P9x03tiFHC3SK3gwVO0G73eylKCcjAFqV79l9aXSyJ5BS53JuAcfZ91oAw
LEmqN49fZtHktnw6ekej3VoGLESsVBh70EGPgOgBctlq2lcpmahXb88MRI/gSjvn
ki2NKXIkh1wvGYZWsEjQwAL9rmo7FLwa/B5JZQ7DQem75Olsdbb3vVu3lcIskErQ
BCnR8a79MQhpgoDQ0RkjVZ7e/2NP/Jg0xCSjz8oSTFqu3CCuRVI3uBxlDkwdJQz0
BrWplEkgNkIou5Lx9qdMl1s5WUfujfGZIZg5os2B4UHMccbaPCzNHQ+UrA7IkSgj
9ONsGhnib9Sddk/qSJb9NxY7TknzydCJuk+Vedjq66zhg1QjiFF6tY+bt2b13XJ9
i07sYOGM33G5049ZEhqXnwHnbPvlq0g3cKpReQYIGv7GblTyyWF4wyyrjruuWx7O
cTT1IxbcjvxHRgLBmeKwzqhhCd1U78KegLhwk6TLc4LH9eUW8mUkpQ==
-----END CERTIFICATE-----
